In archive libm.a:

e_acos.o:     file format elf32-ba

Disassembly of section .text:

00000000 <___ieee754_acos>:
   0:	47 a6 50                	b.entri    0x6,0xa
   3:	31 41 02                	b.addi     r10,r1,0x40
   6:	cc 6a 0b ff             	b.sw       0xffffffd0(r10),r3
   a:	cc 8a 2b ff             	b.sw       0xffffffd4(r10),r4
   e:	cc 4a 4b ff             	b.lwz      r2,0xffffffd0(r10)
  12:	94 e2 ff ff ff fe       	b.andi     r7,r2,0x7fffffff
  18:	98 c0 ff ff f7 fc       	b.ori      r6,r0,0x3fefffff
  1e:	d3 0c 76 20             	b.bges     r6,r7,64 <___ieee754_acos+0x64>
  22:	90 e7 00 00 08 03       	b.addi     r7,r7,0xc0100000
  28:	cc ca 6b ff             	b.lwz      r6,0xffffffd4(r10)
  2c:	60 e7 31                	b.or       r7,r7,r6
  2f:	41 07 58                	b.bnei     r7,0x0,49 <___ieee754_acos+0x49>
  32:	00 a0                   	b.movi     r5,0x0
  34:	00 c0                   	b.movi     r6,0x0
  36:	d0 c0 20 7a             	b.bgtsi    r2,0x0,616 <___ieee754_acos+0x616>
  3a:	98 a0 df 84 90 02       	b.ori      r5,r0,0x400921fb
  40:	98 c0 18 b4 22 2a       	b.ori      r6,r0,0x54442d18
  46:	46 0b a0                	b.j        616 <___ieee754_acos+0x616>
  49:	cc aa 4b ff             	b.lwz      r5,0xffffffd0(r10)
  4d:	cc ca 6b ff             	b.lwz      r6,0xffffffd4(r10)
  51:	a4 00 00 00 00 00       	b.jal      51 <___ieee754_acos+0x51>
  57:	04 a3                   	b.mov      r5,r3
  59:	04 c4                   	b.mov      r6,r4
  5b:	a4 00 00 00 00 00       	b.jal      5b <___ieee754_acos+0x5b>
  61:	46 8d a0                	b.j        612 <___ieee754_acos+0x612>
  64:	98 c0 ff ff fb fc       	b.ori      r6,r0,0x3fdfffff
  6a:	d3 4e 69 38             	b.bgts     r7,r6,233 <___ieee754_acos+0x233>
  6e:	98 a0 df 84 9f fc       	b.ori      r5,r0,0x3ff921fb
  74:	98 c0 18 b4 22 2a       	b.ori      r6,r0,0x54442d18
  7a:	98 40 00 00 06 3c       	b.ori      r2,r0,0x3c600000
  80:	d3 04 76 9a             	b.bges     r2,r7,616 <___ieee754_acos+0x616>
  84:	cc aa 4b ff             	b.lwz      r5,0xffffffd0(r10)
  88:	cc ca 6b ff             	b.lwz      r6,0xffffffd4(r10)
  8c:	a4 00 00 00 00 00       	b.jal      8c <___ieee754_acos+0x8c>
  92:	05 63                   	b.mov      r11,r3
  94:	05 84                   	b.mov      r12,r4
  96:	04 6b                   	b.mov      r3,r11
  98:	98 a0 87 bc 40 fc       	b.ori      r5,r0,0x3f023de1
  9e:	98 c0 90 ef bf b0       	b.ori      r6,r0,0xdfdf709
  a4:	a4 00 00 00 00 00       	b.jal      a4 <___ieee754_acos+0xa4>
  aa:	98 a0 07 f7 92 fc       	b.ori      r5,r0,0x3f49efe0
  b0:	98 c0 11 4d 80 ae       	b.ori      r6,r0,0x7501b288
  b6:	a4 00 00 00 00 00       	b.jal      b6 <___ieee754_acos+0xb6>
  bc:	04 a3                   	b.mov      r5,r3
  be:	04 c4                   	b.mov      r6,r4
  c0:	04 6b                   	b.mov      r3,r11
  c2:	04 8c                   	b.mov      r4,r12
  c4:	a4 00 00 00 00 00       	b.jal      c4 <___ieee754_acos+0xc4>
  ca:	98 a0 14 41 25 fc       	b.ori      r5,r0,0x3fa48228
  d0:	98 c0 dc f1 16 ad       	b.ori      r6,r0,0xb5688f3b
  d6:	a4 00 00 00 00 00       	b.jal      d6 <___ieee754_acos+0xd6>
  dc:	04 a3                   	b.mov      r5,r3
  de:	04 c4                   	b.mov      r6,r4
  e0:	04 6b                   	b.mov      r3,r11
  e2:	04 8c                   	b.mov      r4,r12
  e4:	a4 00 00 00 00 00       	b.jal      e4 <___ieee754_acos+0xe4>
  ea:	98 a0 aa 83 93 fc       	b.ori      r5,r0,0x3fc9c155
  f0:	98 c0 aa 22 11 70       	b.ori      r6,r0,0xe884455
  f6:	a4 00 00 00 00 00       	b.jal      f6 <___ieee754_acos+0xf6>
  fc:	04 a3                   	b.mov      r5,r3
  fe:	04 c4                   	b.mov      r6,r4
 100:	04 6b                   	b.mov      r3,r11
 102:	04 8c                   	b.mov      r4,r12
 104:	a4 00 00 00 00 00       	b.jal      104 <___ieee754_acos+0x104>
 10a:	98 a0 48 6b 2b fc       	b.ori      r5,r0,0x3fd4d612
 110:	98 c0 be f6 d7 c0       	b.ori      r6,r0,0x3eb6f7d
 116:	a4 00 00 00 00 00       	b.jal      116 <___ieee754_acos+0x116>
 11c:	04 a3                   	b.mov      r5,r3
 11e:	04 c4                   	b.mov      r6,r4
 120:	04 6b                   	b.mov      r3,r11
 122:	04 8c                   	b.mov      r4,r12
 124:	a4 00 00 00 00 00       	b.jal      124 <___ieee754_acos+0x124>
 12a:	98 a0 aa aa a3 fc       	b.ori      r5,r0,0x3fc55555
 130:	98 c0 aa aa aa aa       	b.ori      r6,r0,0x55555555
 136:	a4 00 00 00 00 00       	b.jal      136 <___ieee754_acos+0x136>
 13c:	04 a3                   	b.mov      r5,r3
 13e:	04 c4                   	b.mov      r6,r4
 140:	04 6b                   	b.mov      r3,r11
 142:	04 8c                   	b.mov      r4,r12
 144:	a4 00 00 00 00 00       	b.jal      144 <___ieee754_acos+0x144>
 14a:	05 a3                   	b.mov      r13,r3
 14c:	05 c4                   	b.mov      r14,r4
 14e:	04 6b                   	b.mov      r3,r11
 150:	04 8c                   	b.mov      r4,r12
 152:	98 a0 a3 1d cd fc       	b.ori      r5,r0,0x3fb3b8c5
 158:	98 c0 41 49 74 8d       	b.ori      r6,r0,0xb12e9282
 15e:	a4 00 00 00 00 00       	b.jal      15e <___ieee754_acos+0x15e>
 164:	98 a0 36 60 67 fc       	b.ori      r5,r0,0x3fe6066c
 16a:	98 c0 9a 80 b1 d8       	b.ori      r6,r0,0x1b8d0159
 170:	a4 00 00 00 00 00       	b.jal      170 <___ieee754_acos+0x170>
 176:	04 a3                   	b.mov      r5,r3
 178:	04 c4                   	b.mov      r6,r4
 17a:	04 6b                   	b.mov      r3,r11
 17c:	04 8c                   	b.mov      r4,r12
 17e:	a4 00 00 00 00 00       	b.jal      17e <___ieee754_acos+0x17e>
 184:	98 a0 a7 54 00 02       	b.ori      r5,r0,0x40002ae5
 18a:	98 c0 13 51 9a 39       	b.ori      r6,r0,0x9c598ac8
 190:	a4 00 00 00 00 00       	b.jal      190 <___ieee754_acos+0x190>
 196:	04 a3                   	b.mov      r5,r3
 198:	04 c4                   	b.mov      r6,r4
 19a:	04 6b                   	b.mov      r3,r11
 19c:	04 8c                   	b.mov      r4,r12
 19e:	a4 00 00 00 00 00       	b.jal      19e <___ieee754_acos+0x19e>
 1a4:	98 a0 e4 5c c0 02       	b.ori      r5,r0,0x40033a27
 1aa:	98 c0 d2 b4 51 38       	b.ori      r6,r0,0x1c8a2d4b
 1b0:	a4 00 00 00 00 00       	b.jal      1b0 <___ieee754_acos+0x1b0>
 1b6:	04 a3                   	b.mov      r5,r3
 1b8:	04 c4                   	b.mov      r6,r4
 1ba:	04 6b                   	b.mov      r3,r11
 1bc:	04 8c                   	b.mov      r4,r12
 1be:	a4 00 00 00 00 00       	b.jal      1be <___ieee754_acos+0x1be>
 1c4:	98 a0 00 00 0f fc       	b.ori      r5,r0,0x3ff00000
 1ca:	00 c0                   	b.movi     r6,0x0
 1cc:	a4 00 00 00 00 00       	b.jal      1cc <___ieee754_acos+0x1cc>
 1d2:	04 a3                   	b.mov      r5,r3
 1d4:	04 c4                   	b.mov      r6,r4
 1d6:	04 6d                   	b.mov      r3,r13
 1d8:	04 8e                   	b.mov      r4,r14
 1da:	a4 00 00 00 00 00       	b.jal      1da <___ieee754_acos+0x1da>
 1e0:	04 a3                   	b.mov      r5,r3
 1e2:	04 c4                   	b.mov      r6,r4
 1e4:	cc 6a 4b ff             	b.lwz      r3,0xffffffd0(r10)
 1e8:	cc 8a 6b ff             	b.lwz      r4,0xffffffd4(r10)
 1ec:	a4 00 00 00 00 00       	b.jal      1ec <___ieee754_acos+0x1ec>
 1f2:	04 a3                   	b.mov      r5,r3
 1f4:	04 c4                   	b.mov      r6,r4
 1f6:	98 60 64 65 89 3c       	b.ori      r3,r0,0x3c91a626
 1fc:	98 80 e0 3a 28 cc       	b.ori      r4,r0,0x33145c07
 202:	a4 00 00 00 00 00       	b.jal      202 <___ieee754_acos+0x202>
 208:	04 a3                   	b.mov      r5,r3
 20a:	04 c4                   	b.mov      r6,r4
 20c:	cc 6a 4b ff             	b.lwz      r3,0xffffffd0(r10)
 210:	cc 8a 6b ff             	b.lwz      r4,0xffffffd4(r10)
 214:	a4 00 00 00 00 00       	b.jal      214 <___ieee754_acos+0x214>
 21a:	04 a3                   	b.mov      r5,r3
 21c:	04 c4                   	b.mov      r6,r4
 21e:	98 60 df 84 9f fc       	b.ori      r3,r0,0x3ff921fb
 224:	98 80 18 b4 22 2a       	b.ori      r4,r0,0x54442d18
 22a:	a4 00 00 00 00 00       	b.jal      22a <___ieee754_acos+0x22a>
 230:	46 47 c0                	b.j        612 <___ieee754_acos+0x612>
 233:	d0 80 2f 38             	b.bgesi    r2,0x0,402 <___ieee754_acos+0x402>
 237:	98 a0 00 00 0f fc       	b.ori      r5,r0,0x3ff00000
 23d:	00 c0                   	b.movi     r6,0x0
 23f:	a4 00 00 00 00 00       	b.jal      23f <___ieee754_acos+0x23f>
 245:	98 a0 00 00 07 fc       	b.ori      r5,r0,0x3fe00000
 24b:	00 c0                   	b.movi     r6,0x0
 24d:	a4 00 00 00 00 00       	b.jal      24d <___ieee754_acos+0x24d>
 253:	05 63                   	b.mov      r11,r3
 255:	05 84                   	b.mov      r12,r4
 257:	04 6b                   	b.mov      r3,r11
 259:	a4 00 00 00 00 00       	b.jal      259 <___ieee754_acos+0x259>
 25f:	cc 6a 07 ff             	b.sw       0xffffffe0(r10),r3
 263:	cc 8a 27 ff             	b.sw       0xffffffe4(r10),r4
 267:	04 6b                   	b.mov      r3,r11
 269:	04 8c                   	b.mov      r4,r12
 26b:	98 a0 87 bc 40 fc       	b.ori      r5,r0,0x3f023de1
 271:	98 c0 90 ef bf b0       	b.ori      r6,r0,0xdfdf709
 277:	a4 00 00 00 00 00       	b.jal      277 <___ieee754_acos+0x277>
 27d:	98 a0 07 f7 92 fc       	b.ori      r5,r0,0x3f49efe0
 283:	98 c0 11 4d 80 ae       	b.ori      r6,r0,0x7501b288
 289:	a4 00 00 00 00 00       	b.jal      289 <___ieee754_acos+0x289>
 28f:	04 a3                   	b.mov      r5,r3
 291:	04 c4                   	b.mov      r6,r4
 293:	04 6b                   	b.mov      r3,r11
 295:	04 8c                   	b.mov      r4,r12
 297:	a4 00 00 00 00 00       	b.jal      297 <___ieee754_acos+0x297>
 29d:	98 a0 14 41 25 fc       	b.ori      r5,r0,0x3fa48228
 2a3:	98 c0 dc f1 16 ad       	b.ori      r6,r0,0xb5688f3b
 2a9:	a4 00 00 00 00 00       	b.jal      2a9 <___ieee754_acos+0x2a9>
 2af:	04 a3                   	b.mov      r5,r3
 2b1:	04 c4                   	b.mov      r6,r4
 2b3:	04 6b                   	b.mov      r3,r11
 2b5:	04 8c                   	b.mov      r4,r12
 2b7:	a4 00 00 00 00 00       	b.jal      2b7 <___ieee754_acos+0x2b7>
 2bd:	98 a0 aa 83 93 fc       	b.ori      r5,r0,0x3fc9c155
 2c3:	98 c0 aa 22 11 70       	b.ori      r6,r0,0xe884455
 2c9:	a4 00 00 00 00 00       	b.jal      2c9 <___ieee754_acos+0x2c9>
 2cf:	04 a3                   	b.mov      r5,r3
 2d1:	04 c4                   	b.mov      r6,r4
 2d3:	04 6b                   	b.mov      r3,r11
 2d5:	04 8c                   	b.mov      r4,r12
 2d7:	a4 00 00 00 00 00       	b.jal      2d7 <___ieee754_acos+0x2d7>
 2dd:	98 a0 48 6b 2b fc       	b.ori      r5,r0,0x3fd4d612
 2e3:	98 c0 be f6 d7 c0       	b.ori      r6,r0,0x3eb6f7d
 2e9:	a4 00 00 00 00 00       	b.jal      2e9 <___ieee754_acos+0x2e9>
 2ef:	04 a3                   	b.mov      r5,r3
 2f1:	04 c4                   	b.mov      r6,r4
 2f3:	04 6b                   	b.mov      r3,r11
 2f5:	04 8c                   	b.mov      r4,r12
 2f7:	a4 00 00 00 00 00       	b.jal      2f7 <___ieee754_acos+0x2f7>
 2fd:	98 a0 aa aa a3 fc       	b.ori      r5,r0,0x3fc55555
 303:	98 c0 aa aa aa aa       	b.ori      r6,r0,0x55555555
 309:	a4 00 00 00 00 00       	b.jal      309 <___ieee754_acos+0x309>
 30f:	04 a3                   	b.mov      r5,r3
 311:	04 c4                   	b.mov      r6,r4
 313:	04 6b                   	b.mov      r3,r11
 315:	04 8c                   	b.mov      r4,r12
 317:	a4 00 00 00 00 00       	b.jal      317 <___ieee754_acos+0x317>
 31d:	05 a3                   	b.mov      r13,r3
 31f:	05 c4                   	b.mov      r14,r4
 321:	04 6b                   	b.mov      r3,r11
 323:	04 8c                   	b.mov      r4,r12
 325:	98 a0 a3 1d cd fc       	b.ori      r5,r0,0x3fb3b8c5
 32b:	98 c0 41 49 74 8d       	b.ori      r6,r0,0xb12e9282
 331:	a4 00 00 00 00 00       	b.jal      331 <___ieee754_acos+0x331>
 337:	98 a0 36 60 67 fc       	b.ori      r5,r0,0x3fe6066c
 33d:	98 c0 9a 80 b1 d8       	b.ori      r6,r0,0x1b8d0159
 343:	a4 00 00 00 00 00       	b.jal      343 <___ieee754_acos+0x343>
 349:	04 a3                   	b.mov      r5,r3
 34b:	04 c4                   	b.mov      r6,r4
 34d:	04 6b                   	b.mov      r3,r11
 34f:	04 8c                   	b.mov      r4,r12
 351:	a4 00 00 00 00 00       	b.jal      351 <___ieee754_acos+0x351>
 357:	98 a0 a7 54 00 02       	b.ori      r5,r0,0x40002ae5
 35d:	98 c0 13 51 9a 39       	b.ori      r6,r0,0x9c598ac8
 363:	a4 00 00 00 00 00       	b.jal      363 <___ieee754_acos+0x363>
 369:	04 a3                   	b.mov      r5,r3
 36b:	04 c4                   	b.mov      r6,r4
 36d:	04 6b                   	b.mov      r3,r11
 36f:	04 8c                   	b.mov      r4,r12
 371:	a4 00 00 00 00 00       	b.jal      371 <___ieee754_acos+0x371>
 377:	98 a0 e4 5c c0 02       	b.ori      r5,r0,0x40033a27
 37d:	98 c0 d2 b4 51 38       	b.ori      r6,r0,0x1c8a2d4b
 383:	a4 00 00 00 00 00       	b.jal      383 <___ieee754_acos+0x383>
 389:	04 a3                   	b.mov      r5,r3
 38b:	04 c4                   	b.mov      r6,r4
 38d:	04 6b                   	b.mov      r3,r11
 38f:	04 8c                   	b.mov      r4,r12
 391:	a4 00 00 00 00 00       	b.jal      391 <___ieee754_acos+0x391>
 397:	98 a0 00 00 0f fc       	b.ori      r5,r0,0x3ff00000
 39d:	00 c0                   	b.movi     r6,0x0
 39f:	a4 00 00 00 00 00       	b.jal      39f <___ieee754_acos+0x39f>
 3a5:	04 a3                   	b.mov      r5,r3
 3a7:	04 c4                   	b.mov      r6,r4
 3a9:	04 6d                   	b.mov      r3,r13
 3ab:	04 8e                   	b.mov      r4,r14
 3ad:	a4 00 00 00 00 00       	b.jal      3ad <___ieee754_acos+0x3ad>
 3b3:	cc aa 47 ff             	b.lwz      r5,0xffffffe0(r10)
 3b7:	cc ca 67 ff             	b.lwz      r6,0xffffffe4(r10)
 3bb:	a4 00 00 00 00 00       	b.jal      3bb <___ieee754_acos+0x3bb>
 3c1:	98 a0 64 65 89 3c       	b.ori      r5,r0,0x3c91a626
 3c7:	98 c0 e0 3a 28 cc       	b.ori      r6,r0,0x33145c07
 3cd:	a4 00 00 00 00 00       	b.jal      3cd <___ieee754_acos+0x3cd>
 3d3:	04 a3                   	b.mov      r5,r3
 3d5:	04 c4                   	b.mov      r6,r4
 3d7:	cc 6a 47 ff             	b.lwz      r3,0xffffffe0(r10)
 3db:	cc 8a 67 ff             	b.lwz      r4,0xffffffe4(r10)
 3df:	a4 00 00 00 00 00       	b.jal      3df <___ieee754_acos+0x3df>
 3e5:	98 a0 00 00 00 03       	b.ori      r5,r0,0xc0000000
 3eb:	00 c0                   	b.movi     r6,0x0
 3ed:	a4 00 00 00 00 00       	b.jal      3ed <___ieee754_acos+0x3ed>
 3f3:	98 a0 df 84 90 02       	b.ori      r5,r0,0x400921fb
 3f9:	98 c0 18 b4 22 2a       	b.ori      r6,r0,0x54442d18
 3ff:	46 b0 40                	b.j        60c <___ieee754_acos+0x60c>
 402:	98 60 00 00 0f fc       	b.ori      r3,r0,0x3ff00000
 408:	00 80                   	b.movi     r4,0x0
 40a:	cc aa 4b ff             	b.lwz      r5,0xffffffd0(r10)
 40e:	cc ca 6b ff             	b.lwz      r6,0xffffffd4(r10)
 412:	a4 00 00 00 00 00       	b.jal      412 <___ieee754_acos+0x412>
 418:	98 a0 00 00 07 fc       	b.ori      r5,r0,0x3fe00000
 41e:	00 c0                   	b.movi     r6,0x0
 420:	a4 00 00 00 00 00       	b.jal      420 <___ieee754_acos+0x420>
 426:	05 63                   	b.mov      r11,r3
 428:	05 84                   	b.mov      r12,r4
 42a:	04 6b                   	b.mov      r3,r11
 42c:	a4 00 00 00 00 00       	b.jal      42c <___ieee754_acos+0x42c>
 432:	cc 6a 1b ff             	b.sw       0xffffffd8(r10),r3
 436:	cc 8a 3b ff             	b.sw       0xffffffdc(r10),r4
 43a:	05 a3                   	b.mov      r13,r3
 43c:	01 c0                   	b.movi     r14,0x0
 43e:	04 6b                   	b.mov      r3,r11
 440:	04 8c                   	b.mov      r4,r12
 442:	98 a0 87 bc 40 fc       	b.ori      r5,r0,0x3f023de1
 448:	98 c0 90 ef bf b0       	b.ori      r6,r0,0xdfdf709
 44e:	a4 00 00 00 00 00       	b.jal      44e <___ieee754_acos+0x44e>
 454:	98 a0 07 f7 92 fc       	b.ori      r5,r0,0x3f49efe0
 45a:	98 c0 11 4d 80 ae       	b.ori      r6,r0,0x7501b288
 460:	a4 00 00 00 00 00       	b.jal      460 <___ieee754_acos+0x460>
 466:	04 a3                   	b.mov      r5,r3
 468:	04 c4                   	b.mov      r6,r4
 46a:	04 6b                   	b.mov      r3,r11
 46c:	04 8c                   	b.mov      r4,r12
 46e:	a4 00 00 00 00 00       	b.jal      46e <___ieee754_acos+0x46e>
 474:	98 a0 14 41 25 fc       	b.ori      r5,r0,0x3fa48228
 47a:	98 c0 dc f1 16 ad       	b.ori      r6,r0,0xb5688f3b
 480:	a4 00 00 00 00 00       	b.jal      480 <___ieee754_acos+0x480>
 486:	04 a3                   	b.mov      r5,r3
 488:	04 c4                   	b.mov      r6,r4
 48a:	04 6b                   	b.mov      r3,r11
 48c:	04 8c                   	b.mov      r4,r12
 48e:	a4 00 00 00 00 00       	b.jal      48e <___ieee754_acos+0x48e>
 494:	98 a0 aa 83 93 fc       	b.ori      r5,r0,0x3fc9c155
 49a:	98 c0 aa 22 11 70       	b.ori      r6,r0,0xe884455
 4a0:	a4 00 00 00 00 00       	b.jal      4a0 <___ieee754_acos+0x4a0>
 4a6:	04 a3                   	b.mov      r5,r3
 4a8:	04 c4                   	b.mov      r6,r4
 4aa:	04 6b                   	b.mov      r3,r11
 4ac:	04 8c                   	b.mov      r4,r12
 4ae:	a4 00 00 00 00 00       	b.jal      4ae <___ieee754_acos+0x4ae>
 4b4:	98 a0 48 6b 2b fc       	b.ori      r5,r0,0x3fd4d612
 4ba:	98 c0 be f6 d7 c0       	b.ori      r6,r0,0x3eb6f7d
 4c0:	a4 00 00 00 00 00       	b.jal      4c0 <___ieee754_acos+0x4c0>
 4c6:	04 a3                   	b.mov      r5,r3
 4c8:	04 c4                   	b.mov      r6,r4
 4ca:	04 6b                   	b.mov      r3,r11
 4cc:	04 8c                   	b.mov      r4,r12
 4ce:	a4 00 00 00 00 00       	b.jal      4ce <___ieee754_acos+0x4ce>
 4d4:	98 a0 aa aa a3 fc       	b.ori      r5,r0,0x3fc55555
 4da:	98 c0 aa aa aa aa       	b.ori      r6,r0,0x55555555
 4e0:	a4 00 00 00 00 00       	b.jal      4e0 <___ieee754_acos+0x4e0>
 4e6:	04 a3                   	b.mov      r5,r3
 4e8:	04 c4                   	b.mov      r6,r4
 4ea:	04 6b                   	b.mov      r3,r11
 4ec:	04 8c                   	b.mov      r4,r12
 4ee:	a4 00 00 00 00 00       	b.jal      4ee <___ieee754_acos+0x4ee>
 4f4:	cc 6a 13 ff             	b.sw       0xffffffc8(r10),r3
 4f8:	cc 8a 33 ff             	b.sw       0xffffffcc(r10),r4
 4fc:	04 6b                   	b.mov      r3,r11
 4fe:	04 8c                   	b.mov      r4,r12
 500:	98 a0 a3 1d cd fc       	b.ori      r5,r0,0x3fb3b8c5
 506:	98 c0 41 49 74 8d       	b.ori      r6,r0,0xb12e9282
 50c:	a4 00 00 00 00 00       	b.jal      50c <___ieee754_acos+0x50c>
 512:	98 a0 36 60 67 fc       	b.ori      r5,r0,0x3fe6066c
 518:	98 c0 9a 80 b1 d8       	b.ori      r6,r0,0x1b8d0159
 51e:	a4 00 00 00 00 00       	b.jal      51e <___ieee754_acos+0x51e>
 524:	04 a3                   	b.mov      r5,r3
 526:	04 c4                   	b.mov      r6,r4
 528:	04 6b                   	b.mov      r3,r11
 52a:	04 8c                   	b.mov      r4,r12
 52c:	a4 00 00 00 00 00       	b.jal      52c <___ieee754_acos+0x52c>
 532:	98 a0 a7 54 00 02       	b.ori      r5,r0,0x40002ae5
 538:	98 c0 13 51 9a 39       	b.ori      r6,r0,0x9c598ac8
 53e:	a4 00 00 00 00 00       	b.jal      53e <___ieee754_acos+0x53e>
 544:	04 a3                   	b.mov      r5,r3
 546:	04 c4                   	b.mov      r6,r4
 548:	04 6b                   	b.mov      r3,r11
 54a:	04 8c                   	b.mov      r4,r12
 54c:	a4 00 00 00 00 00       	b.jal      54c <___ieee754_acos+0x54c>
 552:	98 a0 e4 5c c0 02       	b.ori      r5,r0,0x40033a27
 558:	98 c0 d2 b4 51 38       	b.ori      r6,r0,0x1c8a2d4b
 55e:	a4 00 00 00 00 00       	b.jal      55e <___ieee754_acos+0x55e>
 564:	04 a3                   	b.mov      r5,r3
 566:	04 c4                   	b.mov      r6,r4
 568:	04 6b                   	b.mov      r3,r11
 56a:	04 8c                   	b.mov      r4,r12
 56c:	a4 00 00 00 00 00       	b.jal      56c <___ieee754_acos+0x56c>
 572:	98 a0 00 00 0f fc       	b.ori      r5,r0,0x3ff00000
 578:	00 c0                   	b.movi     r6,0x0
 57a:	a4 00 00 00 00 00       	b.jal      57a <___ieee754_acos+0x57a>
 580:	04 a3                   	b.mov      r5,r3
 582:	04 c4                   	b.mov      r6,r4
 584:	cc 6a 53 ff             	b.lwz      r3,0xffffffc8(r10)
 588:	cc 8a 73 ff             	b.lwz      r4,0xffffffcc(r10)
 58c:	a4 00 00 00 00 00       	b.jal      58c <___ieee754_acos+0x58c>
 592:	cc aa 5b ff             	b.lwz      r5,0xffffffd8(r10)
 596:	cc ca 7b ff             	b.lwz      r6,0xffffffdc(r10)
 59a:	a4 00 00 00 00 00       	b.jal      59a <___ieee754_acos+0x59a>
 5a0:	cc 6a 03 ff             	b.sw       0xffffffc0(r10),r3
 5a4:	cc 8a 23 ff             	b.sw       0xffffffc4(r10),r4
 5a8:	04 6d                   	b.mov      r3,r13
 5aa:	04 8e                   	b.mov      r4,r14
 5ac:	04 ad                   	b.mov      r5,r13
 5ae:	04 ce                   	b.mov      r6,r14
 5b0:	a4 00 00 00 00 00       	b.jal      5b0 <___ieee754_acos+0x5b0>
 5b6:	04 a3                   	b.mov      r5,r3
 5b8:	04 c4                   	b.mov      r6,r4
 5ba:	04 6b                   	b.mov      r3,r11
 5bc:	04 8c                   	b.mov      r4,r12
 5be:	a4 00 00 00 00 00       	b.jal      5be <___ieee754_acos+0x5be>
 5c4:	05 63                   	b.mov      r11,r3
 5c6:	05 84                   	b.mov      r12,r4
 5c8:	cc 6a 5b ff             	b.lwz      r3,0xffffffd8(r10)
 5cc:	cc 8a 7b ff             	b.lwz      r4,0xffffffdc(r10)
 5d0:	04 ad                   	b.mov      r5,r13
 5d2:	04 ce                   	b.mov      r6,r14
 5d4:	a4 00 00 00 00 00       	b.jal      5d4 <___ieee754_acos+0x5d4>
 5da:	04 a3                   	b.mov      r5,r3
 5dc:	04 c4                   	b.mov      r6,r4
 5de:	04 6b                   	b.mov      r3,r11
 5e0:	04 8c                   	b.mov      r4,r12
 5e2:	a4 00 00 00 00 00       	b.jal      5e2 <___ieee754_acos+0x5e2>
 5e8:	04 a3                   	b.mov      r5,r3
 5ea:	04 c4                   	b.mov      r6,r4
 5ec:	cc 6a 43 ff             	b.lwz      r3,0xffffffc0(r10)
 5f0:	cc 8a 63 ff             	b.lwz      r4,0xffffffc4(r10)
 5f4:	a4 00 00 00 00 00       	b.jal      5f4 <___ieee754_acos+0x5f4>
 5fa:	04 a3                   	b.mov      r5,r3
 5fc:	04 c4                   	b.mov      r6,r4
 5fe:	04 6d                   	b.mov      r3,r13
 600:	04 8e                   	b.mov      r4,r14
 602:	a4 00 00 00 00 00       	b.jal      602 <___ieee754_acos+0x602>
 608:	04 a3                   	b.mov      r5,r3
 60a:	04 c4                   	b.mov      r6,r4
 60c:	a4 00 00 00 00 00       	b.jal      60c <___ieee754_acos+0x60c>
 612:	04 a3                   	b.mov      r5,r3
 614:	04 c4                   	b.mov      r6,r4
 616:	04 65                   	b.mov      r3,r5
 618:	04 86                   	b.mov      r4,r6
 61a:	47 b6 50                	b.reti     0x6,0xa

e_acosh.o:     file format elf32-ba

Disassembly of section .text:

00000000 <___ieee754_acosh>:
   0:	47 a6 40                	b.entri    0x6,0x2
   3:	31 41 04                	b.addi     r10,r1,0x20
   6:	cc 6a 07 ff             	b.sw       0xffffffe0(r10),r3
   a:	cc 8a 27 ff             	b.sw       0xffffffe4(r10),r4
   e:	98 e0 ff ff f7 fc       	b.ori      r7,r0,0x3fefffff
  14:	d3 46 75 80             	b.bgts     r3,r7,2e <___ieee754_acosh+0x2e>
  18:	04 a3                   	b.mov      r5,r3
  1a:	04 c4                   	b.mov      r6,r4
  1c:	a4 00 00 00 00 00       	b.jal      1c <___ieee754_acosh+0x1c>
  22:	04 a3                   	b.mov      r5,r3
  24:	04 c4                   	b.mov      r6,r4
  26:	a4 00 00 00 00 00       	b.jal      26 <___ieee754_acosh+0x26>
  2c:	0c 70                   	b.j        64 <___ieee754_acosh+0x64>
  2e:	98 e0 ff ff f5 82       	b.ori      r7,r0,0x41afffff
  34:	d3 0e 36 c0             	b.bges     r7,r3,6a <___ieee754_acosh+0x6a>
  38:	98 e0 ff ff f7 fe       	b.ori      r7,r0,0x7fefffff
  3e:	d3 0e 37 00             	b.bges     r7,r3,4c <___ieee754_acosh+0x4c>
  42:	cc aa 47 ff             	b.lwz      r5,0xffffffe0(r10)
  46:	cc ca 67 ff             	b.lwz      r6,0xffffffe4(r10)
  4a:	0c a0                   	b.j        5e <___ieee754_acosh+0x5e>
  4c:	a4 00 00 00 00 00       	b.jal      4c <___ieee754_acosh+0x4c>
  52:	98 a0 42 74 67 fc       	b.ori      r5,r0,0x3fe62e42
  58:	98 c0 f7 9c 5f 7f       	b.ori      r6,r0,0xfefa39ef
  5e:	a4 00 00 00 00 00       	b.jal      5e <___ieee754_acosh+0x5e>
  64:	04 a3                   	b.mov      r5,r3
  66:	04 c4                   	b.mov      r6,r4
  68:	0f dc                   	b.j        157 <___ieee754_acosh+0x157>
  6a:	90 e3 00 00 08 03       	b.addi     r7,r3,0xc0100000
  70:	60 e7 21                	b.or       r7,r7,r4
  73:	00 a0                   	b.movi     r5,0x0
  75:	00 c0                   	b.movi     r6,0x0
  77:	d0 00 70 70             	b.beqi     r7,0x0,157 <___ieee754_acosh+0x157>
  7b:	98 e0 00 00 00 02       	b.ori      r7,r0,0x40000000
  81:	d3 0e 3d e0             	b.bges     r7,r3,fc <___ieee754_acosh+0xfc>
  85:	cc aa 47 ff             	b.lwz      r5,0xffffffe0(r10)
  89:	cc ca 67 ff             	b.lwz      r6,0xffffffe4(r10)
  8d:	a4 00 00 00 00 00       	b.jal      8d <___ieee754_acosh+0x8d>
  93:	98 a0 00 00 0f fc       	b.ori      r5,r0,0x3ff00000
  99:	00 c0                   	b.movi     r6,0x0
  9b:	a4 00 00 00 00 00       	b.jal      9b <___ieee754_acosh+0x9b>
  a1:	a4 00 00 00 00 00       	b.jal      a1 <___ieee754_acosh+0xa1>
  a7:	05 63                   	b.mov      r11,r3
  a9:	05 84                   	b.mov      r12,r4
  ab:	cc 6a 47 ff             	b.lwz      r3,0xffffffe0(r10)
  af:	cc 8a 67 ff             	b.lwz      r4,0xffffffe4(r10)
  b3:	04 a3                   	b.mov      r5,r3
  b5:	04 c4                   	b.mov      r6,r4
  b7:	a4 00 00 00 00 00       	b.jal      b7 <___ieee754_acosh+0xb7>
  bd:	05 a3                   	b.mov      r13,r3
  bf:	05 c4                   	b.mov      r14,r4
  c1:	cc 6a 47 ff             	b.lwz      r3,0xffffffe0(r10)
  c5:	cc 8a 67 ff             	b.lwz      r4,0xffffffe4(r10)
  c9:	04 ab                   	b.mov      r5,r11
  cb:	04 cc                   	b.mov      r6,r12
  cd:	a4 00 00 00 00 00       	b.jal      cd <___ieee754_acosh+0xcd>
  d3:	04 a3                   	b.mov      r5,r3
  d5:	04 c4                   	b.mov      r6,r4
  d7:	98 60 00 00 0f fd       	b.ori      r3,r0,0xbff00000
  dd:	00 80                   	b.movi     r4,0x0
  df:	a4 00 00 00 00 00       	b.jal      df <___ieee754_acosh+0xdf>
  e5:	04 a3                   	b.mov      r5,r3
  e7:	04 c4                   	b.mov      r6,r4
  e9:	04 6d                   	b.mov      r3,r13
  eb:	04 8e                   	b.mov      r4,r14
  ed:	a4 00 00 00 00 00       	b.jal      ed <___ieee754_acosh+0xed>
  f3:	47 c6 40                	b.rtnei    0x6,0x2
  f6:	a4 40 00 00 00 00       	b.j        f6 <___ieee754_acosh+0xf6>
  fc:	98 a0 00 00 0f fc       	b.ori      r5,r0,0x3ff00000
 102:	00 c0                   	b.movi     r6,0x0
 104:	a4 00 00 00 00 00       	b.jal      104 <___ieee754_acosh+0x104>
 10a:	05 63                   	b.mov      r11,r3
 10c:	05 84                   	b.mov      r12,r4
 10e:	04 6b                   	b.mov      r3,r11
 110:	04 ab                   	b.mov      r5,r11
 112:	04 cc                   	b.mov      r6,r12
 114:	a4 00 00 00 00 00       	b.jal      114 <___ieee754_acosh+0x114>
 11a:	05 a3                   	b.mov      r13,r3
 11c:	05 c4                   	b.mov      r14,r4
 11e:	04 6b                   	b.mov      r3,r11
 120:	04 8c                   	b.mov      r4,r12
 122:	04 ab                   	b.mov      r5,r11
 124:	04 cc                   	b.mov      r6,r12
 126:	a4 00 00 00 00 00       	b.jal      126 <___ieee754_acosh+0x126>
 12c:	04 a3                   	b.mov      r5,r3
 12e:	04 c4                   	b.mov      r6,r4
 130:	04 6d                   	b.mov      r3,r13
 132:	04 8e                   	b.mov      r4,r14
 134:	a4 00 00 00 00 00       	b.jal      134 <___ieee754_acosh+0x134>
 13a:	a4 00 00 00 00 00       	b.jal      13a <___ieee754_acosh+0x13a>
 140:	04 a3                   	b.mov      r5,r3
 142:	04 c4                   	b.mov      r6,r4
 144:	04 6b                   	b.mov      r3,r11
 146:	04 8c                   	b.mov      r4,r12
 148:	a4 00 00 00 00 00       	b.jal      148 <___ieee754_acosh+0x148>
 14e:	47 c6 40                	b.rtnei    0x6,0x2
 151:	a4 40 00 00 00 00       	b.j        151 <___ieee754_acosh+0x151>
 157:	04 65                   	b.mov      r3,r5
 159:	04 86                   	b.mov      r4,r6
 15b:	47 b6 40                	b.reti     0x6,0x2

e_asin.o:     file format elf32-ba

Disassembly of section .text:

00000000 <___ieee754_asin>:
   0:	47 ae 30                	b.entri    0x7,0xc
   3:	31 41 32                	b.addi     r10,r1,0x4c
   6:	30 ca 3d                	b.addi     r6,r10,0xffffffbc
   9:	54 66 00                	b.msw      0x0(r6),r3,0x0
   c:	cd ea 7d ff             	b.lwz      r15,0xffffffbc(r10)
  10:	95 6f ff ff ff fe       	b.andi     r11,r15,0x7fffffff
  16:	98 e0 ff ff f7 fc       	b.ori      r7,r0,0x3fefffff
  1c:	d3 0e bd 60             	b.bges     r7,r11,87 <___ieee754_asin+0x87>
  20:	90 eb 00 00 08 03       	b.addi     r7,r11,0xc0100000
  26:	cc ca 43 ff             	b.lwz      r6,0xffffffc0(r10)
  2a:	60 e7 31                	b.or       r7,r7,r6
  2d:	41 07 dc                	b.bnei     r7,0x0,68 <___ieee754_asin+0x68>
  30:	98 a0 df 84 9f fc       	b.ori      r5,r0,0x3ff921fb
  36:	98 c0 18 b4 22 2a       	b.ori      r6,r0,0x54442d18
  3c:	a4 00 00 00 00 00       	b.jal      3c <___ieee754_asin+0x3c>
  42:	05 63                   	b.mov      r11,r3
  44:	05 84                   	b.mov      r12,r4
  46:	30 ea 3d                	b.addi     r7,r10,0xffffffbc
  49:	50 67 00                	b.mlwz     r3,0x0(r7),0x0
  4c:	98 a0 64 65 89 3c       	b.ori      r5,r0,0x3c91a626
  52:	98 c0 e0 3a 28 cc       	b.ori      r6,r0,0x33145c07
  58:	a4 00 00 00 00 00       	b.jal      58 <___ieee754_asin+0x58>
  5e:	04 a3                   	b.mov      r5,r3
  60:	04 c4                   	b.mov      r6,r4
  62:	04 6b                   	b.mov      r3,r11
  64:	04 8c                   	b.mov      r4,r12
  66:	0f ce                   	b.j        235 <___ieee754_asin+0x235>
  68:	30 ea 3d                	b.addi     r7,r10,0xffffffbc
  6b:	50 a7 00                	b.mlwz     r5,0x0(r7),0x0
  6e:	a4 00 00 00 00 00       	b.jal      6e <___ieee754_asin+0x6e>
  74:	04 a3                   	b.mov      r5,r3
  76:	04 c4                   	b.mov      r6,r4
  78:	a4 00 00 00 00 00       	b.jal      78 <___ieee754_asin+0x78>
  7e:	30 ca 3d                	b.addi     r6,r10,0xffffffbc
  81:	54 66 00                	b.msw      0x0(r6),r3,0x0
  84:	46 c3 20                	b.j        547 <___ieee754_asin+0x547>
  87:	98 e0 ff ff fb fc       	b.ori      r7,r0,0x3fdfffff
  8d:	d3 56 70 d8             	b.bgts     r11,r7,23d <___ieee754_asin+0x23d>
  91:	98 c0 ff ff fc 7c       	b.ori      r6,r0,0x3e3fffff
  97:	d3 56 65 40             	b.bgts     r11,r6,c1 <___ieee754_asin+0xc1>
  9b:	98 a0 3c 27 ec 7e       	b.ori      r5,r0,0x7e37e43c
  a1:	98 c0 39 ae 00 11       	b.ori      r6,r0,0x8800759c
  a7:	a4 00 00 00 00 00       	b.jal      a7 <___ieee754_asin+0xa7>
  ad:	98 a0 00 00 0f fc       	b.ori      r5,r0,0x3ff00000
  b3:	00 c0                   	b.movi     r6,0x0
  b5:	a4 00 00 00 00 00       	b.jal      b5 <___ieee754_asin+0xb5>
  bb:	d0 c0 33 12             	b.bgtsi    r3,0x0,547 <___ieee754_asin+0x547>
  bf:	0d fa                   	b.j        23d <___ieee754_asin+0x23d>
  c1:	30 ea 3d                	b.addi     r7,r10,0xffffffbc
  c4:	50 a7 00                	b.mlwz     r5,0x0(r7),0x0
  c7:	a4 00 00 00 00 00       	b.jal      c7 <___ieee754_asin+0xc7>
  cd:	05 63                   	b.mov      r11,r3
  cf:	05 84                   	b.mov      r12,r4
  d1:	04 6b                   	b.mov      r3,r11
  d3:	98 a0 87 bc 40 fc       	b.ori      r5,r0,0x3f023de1
  d9:	98 c0 90 ef bf b0       	b.ori      r6,r0,0xdfdf709
  df:	a4 00 00 00 00 00       	b.jal      df <___ieee754_asin+0xdf>
  e5:	98 a0 07 f7 92 fc       	b.ori      r5,r0,0x3f49efe0
  eb:	98 c0 11 4d 80 ae       	b.ori      r6,r0,0x7501b288
  f1:	a4 00 00 00 00 00       	b.jal      f1 <___ieee754_asin+0xf1>
  f7:	04 a3                   	b.mov      r5,r3
  f9:	04 c4                   	b.mov      r6,r4
  fb:	04 6b                   	b.mov      r3,r11
  fd:	04 8c                   	b.mov      r4,r12
  ff:	a4 00 00 00 00 00       	b.jal      ff <___ieee754_asin+0xff>
 105:	98 a0 14 41 25 fc       	b.ori      r5,r0,0x3fa48228
 10b:	98 c0 dc f1 16 ad       	b.ori      r6,r0,0xb5688f3b
 111:	a4 00 00 00 00 00       	b.jal      111 <___ieee754_asin+0x111>
 117:	04 a3                   	b.mov      r5,r3
 119:	04 c4                   	b.mov      r6,r4
 11b:	04 6b                   	b.mov      r3,r11
 11d:	04 8c                   	b.mov      r4,r12
 11f:	a4 00 00 00 00 00       	b.jal      11f <___ieee754_asin+0x11f>
 125:	98 a0 aa 83 93 fc       	b.ori      r5,r0,0x3fc9c155
 12b:	98 c0 aa 22 11 70       	b.ori      r6,r0,0xe884455
 131:	a4 00 00 00 00 00       	b.jal      131 <___ieee754_asin+0x131>
 137:	04 a3                   	b.mov      r5,r3
 139:	04 c4                   	b.mov      r6,r4
 13b:	04 6b                   	b.mov      r3,r11
 13d:	04 8c                   	b.mov      r4,r12
 13f:	a4 00 00 00 00 00       	b.jal      13f <___ieee754_asin+0x13f>
 145:	98 a0 48 6b 2b fc       	b.ori      r5,r0,0x3fd4d612
 14b:	98 c0 be f6 d7 c0       	b.ori      r6,r0,0x3eb6f7d
 151:	a4 00 00 00 00 00       	b.jal      151 <___ieee754_asin+0x151>
 157:	04 a3                   	b.mov      r5,r3
 159:	04 c4                   	b.mov      r6,r4
 15b:	04 6b                   	b.mov      r3,r11
 15d:	04 8c                   	b.mov      r4,r12
 15f:	a4 00 00 00 00 00       	b.jal      15f <___ieee754_asin+0x15f>
 165:	98 a0 aa aa a3 fc       	b.ori      r5,r0,0x3fc55555
 16b:	98 c0 aa aa aa aa       	b.ori      r6,r0,0x55555555
 171:	a4 00 00 00 00 00       	b.jal      171 <___ieee754_asin+0x171>
 177:	04 a3                   	b.mov      r5,r3
 179:	04 c4                   	b.mov      r6,r4
 17b:	04 6b                   	b.mov      r3,r11
 17d:	04 8c                   	b.mov      r4,r12
 17f:	a4 00 00 00 00 00       	b.jal      17f <___ieee754_asin+0x17f>
 185:	05 a3                   	b.mov      r13,r3
 187:	05 c4                   	b.mov      r14,r4
 189:	04 6b                   	b.mov      r3,r11
 18b:	04 8c                   	b.mov      r4,r12
 18d:	98 a0 a3 1d cd fc       	b.ori      r5,r0,0x3fb3b8c5
 193:	98 c0 41 49 74 8d       	b.ori      r6,r0,0xb12e9282
 199:	a4 00 00 00 00 00       	b.jal      199 <___ieee754_asin+0x199>
 19f:	98 a0 36 60 67 fc       	b.ori      r5,r0,0x3fe6066c
 1a5:	98 c0 9a 80 b1 d8       	b.ori      r6,r0,0x1b8d0159
 1ab:	a4 00 00 00 00 00       	b.jal      1ab <___ieee754_asin+0x1ab>
 1b1:	04 a3                   	b.mov      r5,r3
 1b3:	04 c4                   	b.mov      r6,r4
 1b5:	04 6b                   	b.mov      r3,r11
 1b7:	04 8c                   	b.mov      r4,r12
 1b9:	a4 00 00 00 00 00       	b.jal      1b9 <___ieee754_asin+0x1b9>
 1bf:	98 a0 a7 54 00 02       	b.ori      r5,r0,0x40002ae5
 1c5:	98 c0 13 51 9a 39       	b.ori      r6,r0,0x9c598ac8
 1cb:	a4 00 00 00 00 00       	b.jal      1cb <___ieee754_asin+0x1cb>
 1d1:	04 a3                   	b.mov      r5,r3
 1d3:	04 c4                   	b.mov      r6,r4
 1d5:	04 6b                   	b.mov      r3,r11
 1d7:	04 8c                   	b.mov      r4,r12
 1d9:	a4 00 00 00 00 00       	b.jal      1d9 <___ieee754_asin+0x1d9>
 1df:	98 a0 e4 5c c0 02       	b.ori      r5,r0,0x40033a27
 1e5:	98 c0 d2 b4 51 38       	b.ori      r6,r0,0x1c8a2d4b
 1eb:	a4 00 00 00 00 00       	b.jal      1eb <___ieee754_asin+0x1eb>
 1f1:	04 a3                   	b.mov      r5,r3
 1f3:	04 c4                   	b.mov      r6,r4
 1f5:	04 6b                   	b.mov      r3,r11
 1f7:	04 8c                   	b.mov      r4,r12
 1f9:	a4 00 00 00 00 00       	b.jal      1f9 <___ieee754_asin+0x1f9>
 1ff:	98 a0 00 00 0f fc       	b.ori      r5,r0,0x3ff00000
 205:	00 c0                   	b.movi     r6,0x0
 207:	a4 00 00 00 00 00       	b.jal      207 <___ieee754_asin+0x207>
 20d:	04 a3                   	b.mov      r5,r3
 20f:	04 c4                   	b.mov      r6,r4
 211:	04 6d                   	b.mov      r3,r13
 213:	04 8e                   	b.mov      r4,r14
 215:	a4 00 00 00 00 00       	b.jal      215 <___ieee754_asin+0x215>
 21b:	04 a3                   	b.mov      r5,r3
 21d:	04 c4                   	b.mov      r6,r4
 21f:	30 ea 3d                	b.addi     r7,r10,0xffffffbc
 222:	50 67 00                	b.mlwz     r3,0x0(r7),0x0
 225:	a4 00 00 00 00 00       	b.jal      225 <___ieee754_asin+0x225>
 22b:	04 a3                   	b.mov      r5,r3
 22d:	04 c4                   	b.mov      r6,r4
 22f:	30 ea 3d                	b.addi     r7,r10,0xffffffbc
 232:	50 67 00                	b.mlwz     r3,0x0(r7),0x0
 235:	a4 00 00 00 00 00       	b.jal      235 <___ieee754_asin+0x235>
 23b:	0f 09                   	b.j        7e <___ieee754_asin+0x7e>
 23d:	30 ea 3d                	b.addi     r7,r10,0xffffffbc
 240:	50 67 00                	b.mlwz     r3,0x0(r7),0x0
 243:	a4 00 00 00 00 00       	b.jal      243 <___ieee754_asin+0x243>
 249:	04 a3                   	b.mov      r5,r3
 24b:	04 c4                   	b.mov      r6,r4
 24d:	98 60 00 00 0f fc       	b.ori      r3,r0,0x3ff00000
 253:	00 80                   	b.movi     r4,0x0
 255:	a4 00 00 00 00 00       	b.jal      255 <___ieee754_asin+0x255>
 25b:	98 a0 00 00 07 fc       	b.ori      r5,r0,0x3fe00000
 261:	00 c0                   	b.movi     r6,0x0
 263:	a4 00 00 00 00 00       	b.jal      263 <___ieee754_asin+0x263>
 269:	30 ca 3b                	b.addi     r6,r10,0xffffffdc
 26c:	54 66 00                	b.msw      0x0(r6),r3,0x0
 26f:	98 a0 87 bc 40 fc       	b.ori      r5,r0,0x3f023de1
 275:	98 c0 90 ef bf b0       	b.ori      r6,r0,0xdfdf709
 27b:	a4 00 00 00 00 00       	b.jal      27b <___ieee754_asin+0x27b>
 281:	98 a0 07 f7 92 fc       	b.ori      r5,r0,0x3f49efe0
 287:	98 c0 11 4d 80 ae       	b.ori      r6,r0,0x7501b288
 28d:	a4 00 00 00 00 00       	b.jal      28d <___ieee754_asin+0x28d>
 293:	04 a3                   	b.mov      r5,r3
 295:	04 c4                   	b.mov      r6,r4
 297:	30 ea 3b                	b.addi     r7,r10,0xffffffdc
 29a:	50 67 00                	b.mlwz     r3,0x0(r7),0x0
 29d:	a4 00 00 00 00 00       	b.jal      29d <___ieee754_asin+0x29d>
 2a3:	98 a0 14 41 25 fc       	b.ori      r5,r0,0x3fa48228
 2a9:	98 c0 dc f1 16 ad       	b.ori      r6,r0,0xb5688f3b
 2af:	a4 00 00 00 00 00       	b.jal      2af <___ieee754_asin+0x2af>
 2b5:	04 a3                   	b.mov      r5,r3
 2b7:	04 c4                   	b.mov      r6,r4
 2b9:	30 ea 3b                	b.addi     r7,r10,0xffffffdc
 2bc:	50 67 00                	b.mlwz     r3,0x0(r7),0x0
 2bf:	a4 00 00 00 00 00       	b.jal      2bf <___ieee754_asin+0x2bf>
 2c5:	98 a0 aa 83 93 fc       	b.ori      r5,r0,0x3fc9c155
 2cb:	98 c0 aa 22 11 70       	b.ori      r6,r0,0xe884455
 2d1:	a4 00 00 00 00 00       	b.jal      2d1 <___ieee754_asin+0x2d1>
 2d7:	04 a3                   	b.mov      r5,r3
 2d9:	04 c4                   	b.mov      r6,r4
 2db:	30 ea 3b                	b.addi     r7,r10,0xffffffdc
 2de:	50 67 00                	b.mlwz     r3,0x0(r7),0x0
 2e1:	a4 00 00 00 00 00       	b.jal      2e1 <___ieee754_asin+0x2e1>
 2e7:	98 a0 48 6b 2b fc       	b.ori      r5,r0,0x3fd4d612
 2ed:	98 c0 be f6 d7 c0       	b.ori      r6,r0,0x3eb6f7d
 2f3:	a4 00 00 00 00 00       	b.jal      2f3 <___ieee754_asin+0x2f3>
 2f9:	04 a3                   	b.mov      r5,r3
 2fb:	04 c4                   	b.mov      r6,r4
 2fd:	30 ea 3b                	b.addi     r7,r10,0xffffffdc
 300:	50 67 00                	b.mlwz     r3,0x0(r7),0x0
 303:	a4 00 00 00 00 00       	b.jal      303 <___ieee754_asin+0x303>
 309:	98 a0 aa aa a3 fc       	b.ori      r5,r0,0x3fc55555
 30f:	98 c0 aa aa aa aa       	b.ori      r6,r0,0x55555555
 315:	a4 00 00 00 00 00       	b.jal      315 <___ieee754_asin+0x315>
 31b:	04 a3                   	b.mov      r5,r3
 31d:	04 c4                   	b.mov      r6,r4
 31f:	30 ea 3b                	b.addi     r7,r10,0xffffffdc
 322:	50 67 00                	b.mlwz     r3,0x0(r7),0x0
 325:	a4 00 00 00 00 00       	b.jal      325 <___ieee754_asin+0x325>
 32b:	30 ca 23                	b.addi     r6,r10,0xffffffc4
 32e:	54 66 00                	b.msw      0x0(r6),r3,0x0
 331:	30 ea 3b                	b.addi     r7,r10,0xffffffdc
 334:	50 67 00                	b.mlwz     r3,0x0(r7),0x0
 337:	98 a0 a3 1d cd fc       	b.ori      r5,r0,0x3fb3b8c5
 33d:	98 c0 41 49 74 8d       	b.ori      r6,r0,0xb12e9282
 343:	a4 00 00 00 00 00       	b.jal      343 <___ieee754_asin+0x343>
 349:	98 a0 36 60 67 fc       	b.ori      r5,r0,0x3fe6066c
 34f:	98 c0 9a 80 b1 d8       	b.ori      r6,r0,0x1b8d0159
 355:	a4 00 00 00 00 00       	b.jal      355 <___ieee754_asin+0x355>
 35b:	04 a3                   	b.mov      r5,r3
 35d:	04 c4                   	b.mov      r6,r4
 35f:	30 ea 3b                	b.addi     r7,r10,0xffffffdc
 362:	50 67 00                	b.mlwz     r3,0x0(r7),0x0
 365:	a4 00 00 00 00 00       	b.jal      365 <___ieee754_asin+0x365>
 36b:	98 a0 a7 54 00 02       	b.ori      r5,r0,0x40002ae5
 371:	98 c0 13 51 9a 39       	b.ori      r6,r0,0x9c598ac8
 377:	a4 00 00 00 00 00       	b.jal      377 <___ieee754_asin+0x377>
 37d:	04 a3                   	b.mov      r5,r3
 37f:	04 c4                   	b.mov      r6,r4
 381:	30 ea 3b                	b.addi     r7,r10,0xffffffdc
 384:	50 67 00                	b.mlwz     r3,0x0(r7),0x0
 387:	a4 00 00 00 00 00       	b.jal      387 <___ieee754_asin+0x387>
 38d:	98 a0 e4 5c c0 02       	b.ori      r5,r0,0x40033a27
 393:	98 c0 d2 b4 51 38       	b.ori      r6,r0,0x1c8a2d4b
 399:	a4 00 00 00 00 00       	b.jal      399 <___ieee754_asin+0x399>
 39f:	04 a3                   	b.mov      r5,r3
 3a1:	04 c4                   	b.mov      r6,r4
 3a3:	30 ea 3b                	b.addi     r7,r10,0xffffffdc
 3a6:	50 67 00                	b.mlwz     r3,0x0(r7),0x0
 3a9:	a4 00 00 00 00 00       	b.jal      3a9 <___ieee754_asin+0x3a9>
 3af:	98 a0 00 00 0f fc       	b.ori      r5,r0,0x3ff00000
 3b5:	00 c0                   	b.movi     r6,0x0
 3b7:	a4 00 00 00 00 00       	b.jal      3b7 <___ieee754_asin+0x3b7>
 3bd:	30 ca 33                	b.addi     r6,r10,0xffffffcc
 3c0:	54 66 00                	b.msw      0x0(r6),r3,0x0
 3c3:	30 ea 3b                	b.addi     r7,r10,0xffffffdc
 3c6:	50 67 00                	b.mlwz     r3,0x0(r7),0x0
 3c9:	a4 00 00 00 00 00       	b.jal      3c9 <___ieee754_asin+0x3c9>
 3cf:	30 ca 2b                	b.addi     r6,r10,0xffffffd4
 3d2:	54 66 00                	b.msw      0x0(r6),r3,0x0
 3d5:	98 e0 4c cc f7 fc       	b.ori      r7,r0,0x3fef3332
 3db:	d3 0e b7 a0             	b.bges     r7,r11,439 <___ieee754_asin+0x439>
 3df:	30 ca 23                	b.addi     r6,r10,0xffffffc4
 3e2:	50 66 00                	b.mlwz     r3,0x0(r6),0x0
 3e5:	30 ea 33                	b.addi     r7,r10,0xffffffcc
 3e8:	50 a7 00                	b.mlwz     r5,0x0(r7),0x0
 3eb:	a4 00 00 00 00 00       	b.jal      3eb <___ieee754_asin+0x3eb>
 3f1:	04 a3                   	b.mov      r5,r3
 3f3:	04 c4                   	b.mov      r6,r4
 3f5:	30 ea 2b                	b.addi     r7,r10,0xffffffd4
 3f8:	50 67 00                	b.mlwz     r3,0x0(r7),0x0
 3fb:	a4 00 00 00 00 00       	b.jal      3fb <___ieee754_asin+0x3fb>
 401:	04 a3                   	b.mov      r5,r3
 403:	04 c4                   	b.mov      r6,r4
 405:	30 ea 2b                	b.addi     r7,r10,0xffffffd4
 408:	50 67 00                	b.mlwz     r3,0x0(r7),0x0
 40b:	a4 00 00 00 00 00       	b.jal      40b <___ieee754_asin+0x40b>
 411:	04 a3                   	b.mov      r5,r3
 413:	04 c4                   	b.mov      r6,r4
 415:	a4 00 00 00 00 00       	b.jal      415 <___ieee754_asin+0x415>
 41b:	98 a0 64 65 89 3c       	b.ori      r5,r0,0x3c91a626
 421:	98 c0 e0 3a 28 cc       	b.ori      r6,r0,0x33145c07
 427:	a4 00 00 00 00 00       	b.jal      427 <___ieee754_asin+0x427>
 42d:	04 a3                   	b.mov      r5,r3
 42f:	04 c4                   	b.mov      r6,r4
 431:	98 60 df 84 9f fc       	b.ori      r3,r0,0x3ff921fb
 437:	0e dc                   	b.j        524 <___ieee754_asin+0x524>
 439:	30 ca 2b                	b.addi     r6,r10,0xffffffd4
 43c:	2d a6 40                	b.lwz      r13,0x0(r6)
 43f:	01 c0                   	b.movi     r14,0x0
 441:	50 a6 00                	b.mlwz     r5,0x0(r6),0x0
 444:	a4 00 00 00 00 00       	b.jal      444 <___ieee754_asin+0x444>
 44a:	05 63                   	b.mov      r11,r3
 44c:	05 84                   	b.mov      r12,r4
 44e:	30 ca 23                	b.addi     r6,r10,0xffffffc4
 451:	50 66 00                	b.mlwz     r3,0x0(r6),0x0
 454:	30 ea 33                	b.addi     r7,r10,0xffffffcc
 457:	50 a7 00                	b.mlwz     r5,0x0(r7),0x0
 45a:	a4 00 00 00 00 00       	b.jal      45a <___ieee754_asin+0x45a>
 460:	04 a3                   	b.mov      r5,r3
 462:	04 c4                   	b.mov      r6,r4
 464:	04 6b                   	b.mov      r3,r11
 466:	04 8c                   	b.mov      r4,r12
 468:	a4 00 00 00 00 00       	b.jal      468 <___ieee754_asin+0x468>
 46e:	30 ca 2d                	b.addi     r6,r10,0xffffffb4
 471:	54 66 00                	b.msw      0x0(r6),r3,0x0
 474:	04 6d                   	b.mov      r3,r13
 476:	04 8e                   	b.mov      r4,r14
 478:	04 ad                   	b.mov      r5,r13
 47a:	04 ce                   	b.mov      r6,r14
 47c:	a4 00 00 00 00 00       	b.jal      47c <___ieee754_asin+0x47c>
 482:	04 a3                   	b.mov      r5,r3
 484:	04 c4                   	b.mov      r6,r4
 486:	30 ea 3b                	b.addi     r7,r10,0xffffffdc
 489:	50 67 00                	b.mlwz     r3,0x0(r7),0x0
 48c:	a4 00 00 00 00 00       	b.jal      48c <___ieee754_asin+0x48c>
 492:	05 63                   	b.mov      r11,r3
 494:	05 84                   	b.mov      r12,r4
 496:	30 ca 2b                	b.addi     r6,r10,0xffffffd4
 499:	50 66 00                	b.mlwz     r3,0x0(r6),0x0
 49c:	04 ad                   	b.mov      r5,r13
 49e:	04 ce                   	b.mov      r6,r14
 4a0:	a4 00 00 00 00 00       	b.jal      4a0 <___ieee754_asin+0x4a0>
 4a6:	04 a3                   	b.mov      r5,r3
 4a8:	04 c4                   	b.mov      r6,r4
 4aa:	04 6b                   	b.mov      r3,r11
 4ac:	04 8c                   	b.mov      r4,r12
 4ae:	a4 00 00 00 00 00       	b.jal      4ae <___ieee754_asin+0x4ae>
 4b4:	98 a0 00 00 00 03       	b.ori      r5,r0,0xc0000000
 4ba:	00 c0                   	b.movi     r6,0x0
 4bc:	a4 00 00 00 00 00       	b.jal      4bc <___ieee754_asin+0x4bc>
 4c2:	98 a0 64 65 89 3c       	b.ori      r5,r0,0x3c91a626
 4c8:	98 c0 e0 3a 28 cc       	b.ori      r6,r0,0x33145c07
 4ce:	a4 00 00 00 00 00       	b.jal      4ce <___ieee754_asin+0x4ce>
 4d4:	04 a3                   	b.mov      r5,r3
 4d6:	04 c4                   	b.mov      r6,r4
 4d8:	30 ea 2d                	b.addi     r7,r10,0xffffffb4
 4db:	50 67 00                	b.mlwz     r3,0x0(r7),0x0
 4de:	a4 00 00 00 00 00       	b.jal      4de <___ieee754_asin+0x4de>
 4e4:	05 63                   	b.mov      r11,r3
 4e6:	05 84                   	b.mov      r12,r4
 4e8:	04 6d                   	b.mov      r3,r13
 4ea:	04 8e                   	b.mov      r4,r14
 4ec:	98 a0 00 00 00 03       	b.ori      r5,r0,0xc0000000
 4f2:	00 c0                   	b.movi     r6,0x0
 4f4:	a4 00 00 00 00 00       	b.jal      4f4 <___ieee754_asin+0x4f4>
 4fa:	98 a0 df 84 97 fc       	b.ori      r5,r0,0x3fe921fb
 500:	98 c0 18 b4 22 2a       	b.ori      r6,r0,0x54442d18
 506:	a4 00 00 00 00 00       	b.jal      506 <___ieee754_asin+0x506>
 50c:	04 a3                   	b.mov      r5,r3
 50e:	04 c4                   	b.mov      r6,r4
 510:	04 6b                   	b.mov      r3,r11
 512:	04 8c                   	b.mov      r4,r12
 514:	a4 00 00 00 00 00       	b.jal      514 <___ieee754_asin+0x514>
 51a:	04 a3                   	b.mov      r5,r3
 51c:	04 c4                   	b.mov      r6,r4
 51e:	98 60 df 84 97 fc       	b.ori      r3,r0,0x3fe921fb
 524:	98 80 18 b4 22 2a       	b.ori      r4,r0,0x54442d18
 52a:	a4 00 00 00 00 00       	b.jal      52a <___ieee754_asin+0x52a>
 530:	30 ca 3d                	b.addi     r6,r10,0xffffffbc
 533:	54 66 00                	b.msw      0x0(r6),r3,0x0
 536:	43 0f 88                	b.bgtsi    r15,0x0,547 <___ieee754_asin+0x547>
 539:	90 e3 00 00 00 01       	b.addi     r7,r3,0x80000000
 53f:	cc ea 3d ff             	b.sw       0xffffffbc(r10),r7
 543:	cc 8a 03 ff             	b.sw       0xffffffc0(r10),r4
 547:	30 ca 3d                	b.addi     r6,r10,0xffffffbc
 54a:	50 66 00                	b.mlwz     r3,0x0(r6),0x0
 54d:	47 be 30                	b.reti     0x7,0xc

e_atan2.o:     file format elf32-ba

Disassembly of section .text:

00000000 <___ieee754_atan2>:
   0:	47 ae 10                	b.entri    0x7,0x8
   3:	31 41 3c                	b.addi     r10,r1,0x3c
   6:	05 63                   	b.mov      r11,r3
   8:	05 84                   	b.mov      r12,r4
   a:	30 4a 2b                	b.addi     r2,r10,0xffffffd4
   d:	54 a2 00                	b.msw      0x0(r2),r5,0x0
  10:	05 06                   	b.mov      r8,r6
  12:	cc aa 3b ff             	b.sw       0xffffffdc(r10),r5
  16:	95 e5 ff ff ff fe       	b.andi     r15,r5,0x7fffffff
  1c:	30 4a 23                	b.addi     r2,r10,0xffffffc4
  1f:	54 62 00                	b.msw      0x0(r2),r3,0x0
  22:	cc 4a 53 ff             	b.lwz      r2,0xffffffc8(r10)
  26:	60 e0 35                	b.sub      r7,r0,r6
  29:	60 e6 39                	b.or       r7,r6,r7
  2c:	6c e7 f9                	b.srli     r7,r7,0x1f
  2f:	60 ef 39                	b.or       r7,r15,r7
  32:	99 a0 00 00 0f fe       	b.ori      r13,r0,0x7ff00000
  38:	d3 ce d4 40             	b.bgtu     r7,r13,5a <___ieee754_atan2+0x5a>
  3c:	cc ea 63 ff             	b.lwz      r7,0xffffffc4(r10)
  40:	cc ea 07 ff             	b.sw       0xffffffe0(r10),r7
  44:	95 c7 ff ff ff fe       	b.andi     r14,r7,0x7fffffff
  4a:	60 e0 15                	b.sub      r7,r0,r2
  4d:	60 e2 39                	b.or       r7,r2,r7
  50:	6c e7 f9                	b.srli     r7,r7,0x1f
  53:	60 ee 39                	b.or       r7,r14,r7
  56:	d3 9a 73 00             	b.bgeu     r13,r7,62 <___ieee754_atan2+0x62>
  5a:	a4 00 00 00 00 00       	b.jal      5a <___ieee754_atan2+0x5a>
  60:	0e f6                   	b.j        21d <___ieee754_atan2+0x21d>
  62:	cd aa 7b ff             	b.lwz      r13,0xffffffdc(r10)
  66:	90 ed 00 00 08 03       	b.addi     r7,r13,0xc0100000
  6c:	60 e7 31                	b.or       r7,r7,r6
  6f:	41 07 30                	b.bnei     r7,0x0,7b <___ieee754_atan2+0x7b>
  72:	47 ce 10                	b.rtnei    0x7,0x8
  75:	a4 40 00 00 00 00       	b.j        75 <___ieee754_atan2+0x75>
  7b:	cc aa 47 ff             	b.lwz      r5,0xffffffe0(r10)
  7f:	6c e5 f9                	b.srli     r7,r5,0x1f
  82:	cd aa 7b ff             	b.lwz      r13,0xffffffdc(r10)
  86:	6c cd 7a                	b.srai     r6,r13,0x1e
  89:	34 c6 40                	b.andi     r6,r6,0x2
  8c:	61 a7 31                	b.or       r13,r7,r6
  8f:	60 ee 11                	b.or       r7,r14,r2
  92:	41 07 84                	b.bnei     r7,0x0,b3 <___ieee754_atan2+0xb3>
  95:	d0 10 d4 50             	b.beqi     r13,0x2,137 <___ieee754_atan2+0x137>
  99:	43 4d 90                	b.bgtsi    r13,0x2,a2 <___ieee754_atan2+0xa2>
  9c:	d0 80 da 18             	b.bgesi    r13,0x0,221 <___ieee754_atan2+0x221>
  a0:	0f 20                   	b.j        b3 <___ieee754_atan2+0xb3>
  a2:	41 cd 88                	b.bnei     r13,0x3,b3 <___ieee754_atan2+0xb3>
  a5:	99 60 df 84 90 03       	b.ori      r11,r0,0xc00921fb
  ab:	99 80 18 b4 22 2a       	b.ori      r12,r0,0x54442d18
  b1:	0c 3a                   	b.j        221 <___ieee754_atan2+0x221>
  b3:	60 ef 41                	b.or       r7,r15,r8
  b6:	41 07 98                	b.bnei     r7,0x0,cf <___ieee754_atan2+0xcf>
  b9:	99 60 df 84 9f fd       	b.ori      r11,r0,0xbff921fb
  bf:	99 80 18 b4 22 2a       	b.ori      r12,r0,0x54442d18
  c5:	cc 4a 47 ff             	b.lwz      r2,0xffffffe0(r10)
  c9:	d1 40 21 a8             	b.bltsi    r2,0x0,221 <___ieee754_atan2+0x221>
  cd:	0d e4                   	b.j        16b <___ieee754_atan2+0x16b>
  cf:	98 a0 00 00 0f fe       	b.ori      r5,r0,0x7ff00000
  d5:	d2 de 51 e0             	b.bne      r15,r5,14d <___ieee754_atan2+0x14d>
  d9:	d2 dc 5d 20             	b.bne      r14,r5,124 <___ieee754_atan2+0x124>
  dd:	99 60 df 84 97 fd       	b.ori      r11,r0,0xbfe921fb
  e3:	99 80 18 b4 22 2a       	b.ori      r12,r0,0x54442d18
  e9:	d0 20 d1 c8             	b.beqi     r13,0x1,221 <___ieee754_atan2+0x221>
  ed:	43 8d a8                	b.bgtsi    r13,0x1,102 <___ieee754_atan2+0x102>
  f0:	99 60 df 84 97 fc       	b.ori      r11,r0,0x3fe921fb
  f6:	99 80 18 b4 22 2a       	b.ori      r12,r0,0x54442d18
  fc:	d0 00 da 48             	b.beqi     r13,0x0,221 <___ieee754_atan2+0x221>
 100:	0f a8                   	b.j        157 <___ieee754_atan2+0x157>
 102:	99 60 3e 9b 40 02       	b.ori      r11,r0,0x4002d97c
 108:	99 80 4b 84 cc fe       	b.ori      r12,r0,0x7f3321d2
 10e:	d0 10 dc 88             	b.beqi     r13,0x2,221 <___ieee754_atan2+0x221>
 112:	99 60 3e 9b 40 03       	b.ori      r11,r0,0xc002d97c
 118:	99 80 4b 84 cc fe       	b.ori      r12,r0,0x7f3321d2
 11e:	d0 30 dc 08             	b.beqi     r13,0x3,221 <___ieee754_atan2+0x221>
 122:	0e b0                   	b.j        157 <___ieee754_atan2+0x157>
 124:	40 8d f8                	b.beqi     r13,0x1,143 <___ieee754_atan2+0x143>
 127:	43 8d 10                	b.bgtsi    r13,0x1,12f <___ieee754_atan2+0x12f>
 12a:	40 0d a8                	b.beqi     r13,0x0,13f <___ieee754_atan2+0x13f>
 12d:	0c 10                   	b.j        14d <___ieee754_atan2+0x14d>
 12f:	40 4d 10                	b.beqi     r13,0x2,137 <___ieee754_atan2+0x137>
 132:	41 cd d8                	b.bnei     r13,0x3,14d <___ieee754_atan2+0x14d>
 135:	0c 3b                   	b.j        a5 <___ieee754_atan2+0xa5>
 137:	99 60 df 84 90 02       	b.ori      r11,r0,0x400921fb
 13d:	0d db                   	b.j        ab <___ieee754_atan2+0xab>
 13f:	01 60                   	b.movi     r11,0x0
 141:	0c 40                   	b.j        149 <___ieee754_atan2+0x149>
 143:	99 60 00 00 00 01       	b.ori      r11,r0,0x80000000
 149:	01 80                   	b.movi     r12,0x0
 14b:	0d ac                   	b.j        221 <___ieee754_atan2+0x221>
 14d:	98 c0 00 00 0f fe       	b.ori      r6,r0,0x7ff00000
 153:	d2 dc 60 40             	b.bne      r14,r6,173 <___ieee754_atan2+0x173>
 157:	99 60 df 84 9f fd       	b.ori      r11,r0,0xbff921fb
 15d:	99 80 18 b4 22 2a       	b.ori      r12,r0,0x54442d18
 163:	cc ea 47 ff             	b.lwz      r7,0xffffffe0(r10)
 167:	d1 40 75 d0             	b.bltsi    r7,0x0,221 <___ieee754_atan2+0x221>
 16b:	99 60 df 84 9f fc       	b.ori      r11,r0,0x3ff921fb
 171:	0d 73                   	b.j        ab <___ieee754_atan2+0xab>
 173:	60 ee 7d                	b.sub      r7,r14,r15
 176:	6c e7 2a                	b.srai     r7,r7,0x14
 179:	98 60 df 84 9f fc       	b.ori      r3,r0,0x3ff921fb
 17f:	98 80 18 b4 22 2a       	b.ori      r4,r0,0x54442d18
 185:	38 40 3c                	b.ori      r2,r0,0x3c
 188:	d3 4e 24 c0             	b.bgts     r7,r2,1ba <___ieee754_atan2+0x1ba>
 18c:	cc aa 7b ff             	b.lwz      r5,0xffffffdc(r10)
 190:	42 05 70                	b.bgesi    r5,0x0,19e <___ieee754_atan2+0x19e>
 193:	00 60                   	b.movi     r3,0x0
 195:	00 80                   	b.movi     r4,0x0
 197:	30 c0 23                	b.addi     r6,r0,0xffffffc4
 19a:	d3 4c 70 40             	b.bgts     r6,r7,1ba <___ieee754_atan2+0x1ba>
 19e:	04 6b                   	b.mov      r3,r11
 1a0:	04 8c                   	b.mov      r4,r12
 1a2:	30 ea 2b                	b.addi     r7,r10,0xffffffd4
 1a5:	50 a7 00                	b.mlwz     r5,0x0(r7),0x0
 1a8:	a4 00 00 00 00 00       	b.jal      1a8 <___ieee754_atan2+0x1a8>
 1ae:	a4 00 00 00 00 00       	b.jal      1ae <___ieee754_atan2+0x1ae>
 1b4:	a4 00 00 00 00 00       	b.jal      1b4 <___ieee754_atan2+0x1b4>
 1ba:	40 8d f0                	b.beqi     r13,0x1,1c9 <___ieee754_atan2+0x1c9>
 1bd:	40 4d 18                	b.beqi     r13,0x2,1d5 <___ieee754_atan2+0x1d5>
 1c0:	05 63                   	b.mov      r11,r3
 1c2:	05 84                   	b.mov      r12,r4
 1c4:	40 0d ba                	b.beqi     r13,0x0,221 <___ieee754_atan2+0x221>
 1c7:	0d 30                   	b.j        1f9 <___ieee754_atan2+0x1f9>
 1c9:	90 e3 00 00 00 01       	b.addi     r7,r3,0x80000000
 1cf:	05 67                   	b.mov      r11,r7
 1d1:	05 84                   	b.mov      r12,r4
 1d3:	0d c8                   	b.j        221 <___ieee754_atan2+0x221>
 1d5:	98 a0 64 65 85 3c       	b.ori      r5,r0,0x3ca1a626
 1db:	98 c0 e0 3a 28 cc       	b.ori      r6,r0,0x33145c07
 1e1:	a4 00 00 00 00 00       	b.jal      1e1 <___ieee754_atan2+0x1e1>
 1e7:	04 a3                   	b.mov      r5,r3
 1e9:	04 c4                   	b.mov      r6,r4
 1eb:	98 60 df 84 90 02       	b.ori      r3,r0,0x400921fb
 1f1:	98 80 18 b4 22 2a       	b.ori      r4,r0,0x54442d18
 1f7:	0c 10                   	b.j        217 <___ieee754_atan2+0x217>
 1f9:	98 a0 64 65 85 3c       	b.ori      r5,r0,0x3ca1a626
 1ff:	98 c0 e0 3a 28 cc       	b.ori      r6,r0,0x33145c07
 205:	a4 00 00 00 00 00       	b.jal      205 <___ieee754_atan2+0x205>
 20b:	98 a0 df 84 90 02       	b.ori      r5,r0,0x400921fb
 211:	98 c0 18 b4 22 2a       	b.ori      r6,r0,0x54442d18
 217:	a4 00 00 00 00 00       	b.jal      217 <___ieee754_atan2+0x217>
 21d:	05 63                   	b.mov      r11,r3
 21f:	05 84                   	b.mov      r12,r4
 221:	04 6b                   	b.mov      r3,r11
 223:	04 8c                   	b.mov      r4,r12
 225:	47 be 10                	b.reti     0x7,0x8

e_atanh.o:     file format elf32-ba

Disassembly of section .text:

00000000 <___ieee754_atanh>:
   0:	47 ae 40                	b.entri    0x7,0x2
   3:	31 41 24                	b.addi     r10,r1,0x24
   6:	05 a3                   	b.mov      r13,r3
   8:	05 c4                   	b.mov      r14,r4
   a:	05 e3                   	b.mov      r15,r3
   c:	95 63 ff ff ff fe       	b.andi     r11,r3,0x7fffffff
  12:	60 e0 25                	b.sub      r7,r0,r4
  15:	60 e7 21                	b.or       r7,r7,r4
  18:	6c e7 f9                	b.srli     r7,r7,0x1f
  1b:	60 eb 39                	b.or       r7,r11,r7
  1e:	98 c0 00 00 0f fc       	b.ori      r6,r0,0x3ff00000
  24:	d3 8c 72 80             	b.bgeu     r6,r7,38 <___ieee754_atanh+0x38>
  28:	04 a3                   	b.mov      r5,r3
  2a:	04 c4                   	b.mov      r6,r4
  2c:	a4 00 00 00 00 00       	b.jal      2c <___ieee754_atanh+0x2c>
  32:	04 a3                   	b.mov      r5,r3
  34:	04 c4                   	b.mov      r6,r4
  36:	0c 20                   	b.j        46 <___ieee754_atanh+0x46>
  38:	98 e0 00 00 0f fc       	b.ori      r7,r0,0x3ff00000
  3e:	d2 d6 72 80             	b.bne      r11,r7,52 <___ieee754_atanh+0x52>
  42:	00 a0                   	b.movi     r5,0x0
  44:	00 c0                   	b.movi     r6,0x0
  46:	a4 00 00 00 00 00       	b.jal      46 <___ieee754_atanh+0x46>
  4c:	05 a3                   	b.mov      r13,r3
  4e:	05 c4                   	b.mov      r14,r4
  50:	0e 7c                   	b.j        149 <___ieee754_atanh+0x149>
  52:	98 c0 ff ff f4 7c       	b.ori      r6,r0,0x3e2fffff
  58:	d3 56 66 40             	b.bgts     r11,r6,7e <___ieee754_atanh+0x7e>
  5c:	98 a0 3c 27 ec 7e       	b.ori      r5,r0,0x7e37e43c
  62:	98 c0 39 ae 00 11       	b.ori      r6,r0,0x8800759c
  68:	a4 00 00 00 00 00       	b.jal      68 <___ieee754_atanh+0x68>
  6e:	00 a0                   	b.movi     r5,0x0
  70:	00 c0                   	b.movi     r6,0x0
  72:	a4 00 00 00 00 00       	b.jal      72 <___ieee754_atanh+0x72>
  78:	d0 c0 38 b0             	b.bgtsi    r3,0x0,149 <___ieee754_atanh+0x149>
  7c:	0d 0c                   	b.j        13e <___ieee754_atanh+0x13e>
  7e:	05 ab                   	b.mov      r13,r11
  80:	30 ea 3b                	b.addi     r7,r10,0xffffffdc
  83:	2d 67 00                	b.sw       0x0(r7),r11
  86:	2c 87 20                	b.sw       0x4(r7),r4
  89:	98 c0 ff ff fb fc       	b.ori      r6,r0,0x3fdfffff
  8f:	d3 56 63 a0             	b.bgts     r11,r6,eb <___ieee754_atanh+0xeb>
  93:	30 ea 3b                	b.addi     r7,r10,0xffffffdc
  96:	50 67 00                	b.mlwz     r3,0x0(r7),0x0
  99:	04 a3                   	b.mov      r5,r3
  9b:	04 c4                   	b.mov      r6,r4
  9d:	a4 00 00 00 00 00       	b.jal      9d <___ieee754_atanh+0x9d>
  a3:	05 a3                   	b.mov      r13,r3
  a5:	05 c4                   	b.mov      r14,r4
  a7:	04 6d                   	b.mov      r3,r13
  a9:	30 ea 3b                	b.addi     r7,r10,0xffffffdc
  ac:	50 a7 00                	b.mlwz     r5,0x0(r7),0x0
  af:	a4 00 00 00 00 00       	b.jal      af <___ieee754_atanh+0xaf>
  b5:	05 63                   	b.mov      r11,r3
  b7:	05 84                   	b.mov      r12,r4
  b9:	98 60 00 00 0f fc       	b.ori      r3,r0,0x3ff00000
  bf:	00 80                   	b.movi     r4,0x0
  c1:	30 ea 3b                	b.addi     r7,r10,0xffffffdc
  c4:	50 a7 00                	b.mlwz     r5,0x0(r7),0x0
  c7:	a4 00 00 00 00 00       	b.jal      c7 <___ieee754_atanh+0xc7>
  cd:	04 a3                   	b.mov      r5,r3
  cf:	04 c4                   	b.mov      r6,r4
  d1:	04 6b                   	b.mov      r3,r11
  d3:	04 8c                   	b.mov      r4,r12
  d5:	a4 00 00 00 00 00       	b.jal      d5 <___ieee754_atanh+0xd5>
  db:	04 a3                   	b.mov      r5,r3
  dd:	04 c4                   	b.mov      r6,r4
  df:	04 6d                   	b.mov      r3,r13
  e1:	04 8e                   	b.mov      r4,r14
  e3:	a4 00 00 00 00 00       	b.jal      e3 <___ieee754_atanh+0xe3>
  e9:	0d 30                   	b.j        11b <___ieee754_atanh+0x11b>
  eb:	04 6b                   	b.mov      r3,r11
  ed:	04 ab                   	b.mov      r5,r11
  ef:	04 ce                   	b.mov      r6,r14
  f1:	a4 00 00 00 00 00       	b.jal      f1 <___ieee754_atanh+0xf1>
  f7:	05 63                   	b.mov      r11,r3
  f9:	05 84                   	b.mov      r12,r4
  fb:	98 60 00 00 0f fc       	b.ori      r3,r0,0x3ff00000
 101:	00 80                   	b.movi     r4,0x0
 103:	04 ad                   	b.mov      r5,r13
 105:	04 ce                   	b.mov      r6,r14
 107:	a4 00 00 00 00 00       	b.jal      107 <___ieee754_atanh+0x107>
 10d:	04 a3                   	b.mov      r5,r3
 10f:	04 c4                   	b.mov      r6,r4
 111:	04 6b                   	b.mov      r3,r11
 113:	04 8c                   	b.mov      r4,r12
 115:	a4 00 00 00 00 00       	b.jal      115 <___ieee754_atanh+0x115>
 11b:	a4 00 00 00 00 00       	b.jal      11b <___ieee754_atanh+0x11b>
 121:	98 a0 00 00 07 fc       	b.ori      r5,r0,0x3fe00000
 127:	00 c0                   	b.movi     r6,0x0
 129:	a4 00 00 00 00 00       	b.jal      129 <___ieee754_atanh+0x129>
 12f:	05 a3                   	b.mov      r13,r3
 131:	05 c4                   	b.mov      r14,r4
 133:	42 0f 68                	b.bgesi    r15,0x0,149 <___ieee754_atanh+0x149>
 136:	91 a3 00 00 00 01       	b.addi     r13,r3,0x80000000
 13c:	0d 23                   	b.j        4e <___ieee754_atanh+0x4e>
 13e:	30 ca 3b                	b.addi     r6,r10,0xffffffdc
 141:	2d 66 00                	b.sw       0x0(r6),r11
 144:	2d c6 20                	b.sw       0x4(r6),r14
 147:	0c cb                   	b.j        93 <___ieee754_atanh+0x93>
 149:	04 6d                   	b.mov      r3,r13
 14b:	04 8e                   	b.mov      r4,r14
 14d:	47 be 40                	b.reti     0x7,0x2

e_cosh.o:     file format elf32-ba

Disassembly of section .text:

00000000 <___ieee754_cosh>:
   0:	47 a6 40                	b.entri    0x6,0x2
   3:	31 41 04                	b.addi     r10,r1,0x20
   6:	04 a3                   	b.mov      r5,r3
   8:	04 c4                   	b.mov      r6,r4
   a:	95 63 ff ff ff fe       	b.andi     r11,r3,0x7fffffff
  10:	98 e0 ff ff f7 fe       	b.ori      r7,r0,0x7fefffff
  16:	d3 56 71 28             	b.bgts     r11,r7,15e <___ieee754_cosh+0x15e>
  1a:	98 e0 42 74 6b fc       	b.ori      r7,r0,0x3fd62e42
  20:	d3 56 70 e0             	b.bgts     r11,r7,90 <___ieee754_cosh+0x90>
  24:	a4 00 00 00 00 00       	b.jal      24 <___ieee754_cosh+0x24>
  2a:	a4 00 00 00 00 00       	b.jal      2a <___ieee754_cosh+0x2a>
  30:	cc 6a 07 ff             	b.sw       0xffffffe0(r10),r3
  34:	cc 8a 27 ff             	b.sw       0xffffffe4(r10),r4
  38:	98 a0 00 00 0f fc       	b.ori      r5,r0,0x3ff00000
  3e:	00 c0                   	b.movi     r6,0x0
  40:	a4 00 00 00 00 00       	b.jal      40 <___ieee754_cosh+0x40>
  46:	05 a3                   	b.mov      r13,r3
  48:	05 c4                   	b.mov      r14,r4
  4a:	98 e0 ff ff fe 3c       	b.ori      r7,r0,0x3c7fffff
  50:	d3 0e b1 88             	b.bges     r7,r11,168 <___ieee754_cosh+0x168>
  54:	cc 6a 47 ff             	b.lwz      r3,0xffffffe0(r10)
  58:	cc 8a 67 ff             	b.lwz      r4,0xffffffe4(r10)
  5c:	04 a3                   	b.mov      r5,r3
  5e:	04 c4                   	b.mov      r6,r4
  60:	a4 00 00 00 00 00       	b.jal      60 <___ieee754_cosh+0x60>
  66:	05 63                   	b.mov      r11,r3
  68:	05 84                   	b.mov      r12,r4
  6a:	04 6d                   	b.mov      r3,r13
  6c:	04 8e                   	b.mov      r4,r14
  6e:	04 ad                   	b.mov      r5,r13
  70:	04 ce                   	b.mov      r6,r14
  72:	a4 00 00 00 00 00       	b.jal      72 <___ieee754_cosh+0x72>
  78:	04 a3                   	b.mov      r5,r3
  7a:	04 c4                   	b.mov      r6,r4
  7c:	04 6b                   	b.mov      r3,r11
  7e:	04 8c                   	b.mov      r4,r12
  80:	a4 00 00 00 00 00       	b.jal      80 <___ieee754_cosh+0x80>
  86:	98 a0 00 00 0f fc       	b.ori      r5,r0,0x3ff00000
  8c:	00 c0                   	b.movi     r6,0x0
  8e:	0c 48                   	b.j        d6 <___ieee754_cosh+0xd6>
  90:	98 e0 ff ff ac 02       	b.ori      r7,r0,0x4035ffff
  96:	d3 56 71 20             	b.bgts     r11,r7,de <___ieee754_cosh+0xde>
  9a:	a4 00 00 00 00 00       	b.jal      9a <___ieee754_cosh+0x9a>
  a0:	a4 00 00 00 00 00       	b.jal      a0 <___ieee754_cosh+0xa0>
  a6:	05 63                   	b.mov      r11,r3
  a8:	05 84                   	b.mov      r12,r4
  aa:	98 a0 00 00 07 fc       	b.ori      r5,r0,0x3fe00000
  b0:	00 c0                   	b.movi     r6,0x0
  b2:	a4 00 00 00 00 00       	b.jal      b2 <___ieee754_cosh+0xb2>
  b8:	05 a3                   	b.mov      r13,r3
  ba:	05 c4                   	b.mov      r14,r4
  bc:	98 60 00 00 07 fc       	b.ori      r3,r0,0x3fe00000
  c2:	00 80                   	b.movi     r4,0x0
  c4:	04 ab                   	b.mov      r5,r11
  c6:	04 cc                   	b.mov      r6,r12
  c8:	a4 00 00 00 00 00       	b.jal      c8 <___ieee754_cosh+0xc8>
  ce:	04 a3                   	b.mov      r5,r3
  d0:	04 c4                   	b.mov      r6,r4
  d2:	04 6d                   	b.mov      r3,r13
  d4:	04 8e                   	b.mov      r4,r14
  d6:	a4 00 00 00 00 00       	b.jal      d6 <___ieee754_cosh+0xd6>
  dc:	0c 44                   	b.j        164 <___ieee754_cosh+0x164>
  de:	98 e0 82 74 61 02       	b.ori      r7,r0,0x40862e41
  e4:	d3 56 75 80             	b.bgts     r11,r7,fe <___ieee754_cosh+0xfe>
  e8:	a4 00 00 00 00 00       	b.jal      e8 <___ieee754_cosh+0xe8>
  ee:	a4 00 00 00 00 00       	b.jal      ee <___ieee754_cosh+0xee>
  f4:	98 a0 00 00 07 fc       	b.ori      r5,r0,0x3fe00000
  fa:	00 c0                   	b.movi     r6,0x0
  fc:	0d 18                   	b.j        15e <___ieee754_cosh+0x15e>
  fe:	98 e0 b3 cc 61 02       	b.ori      r7,r0,0x408633cd
 104:	d3 0e b1 80             	b.bges     r7,r11,11c <___ieee754_cosh+0x11c>
 108:	98 e0 73 cc 61 02       	b.ori      r7,r0,0x408633ce
 10e:	d2 d6 70 20             	b.bne      r11,r7,14e <___ieee754_cosh+0x14e>
 112:	98 e0 be 1f 9d f1       	b.ori      r7,r0,0x8fb9f87d
 118:	d3 c8 76 c0             	b.bgtu     r4,r7,14e <___ieee754_cosh+0x14e>
 11c:	a4 00 00 00 00 00       	b.jal      11c <___ieee754_cosh+0x11c>
 122:	98 a0 00 00 07 fc       	b.ori      r5,r0,0x3fe00000
 128:	00 c0                   	b.movi     r6,0x0
 12a:	a4 00 00 00 00 00       	b.jal      12a <___ieee754_cosh+0x12a>
 130:	a4 00 00 00 00 00       	b.jal      130 <___ieee754_cosh+0x130>
 136:	05 63                   	b.mov      r11,r3
 138:	05 84                   	b.mov      r12,r4
 13a:	98 a0 00 00 07 fc       	b.ori      r5,r0,0x3fe00000
 140:	00 c0                   	b.movi     r6,0x0
 142:	a4 00 00 00 00 00       	b.jal      142 <___ieee754_cosh+0x142>
 148:	04 ab                   	b.mov      r5,r11
 14a:	04 cc                   	b.mov      r6,r12
 14c:	0d 20                   	b.j        15e <___ieee754_cosh+0x15e>
 14e:	98 60 3c 27 ec 7e       	b.ori      r3,r0,0x7e37e43c
 154:	98 80 39 ae 00 11       	b.ori      r4,r0,0x8800759c
 15a:	04 a3                   	b.mov      r5,r3
 15c:	04 c4                   	b.mov      r6,r4
 15e:	a4 00 00 00 00 00       	b.jal      15e <___ieee754_cosh+0x15e>
 164:	05 a3                   	b.mov      r13,r3
 166:	05 c4                   	b.mov      r14,r4
 168:	04 6d                   	b.mov      r3,r13
 16a:	04 8e                   	b.mov      r4,r14
 16c:	47 b6 40                	b.reti     0x6,0x2

e_exp.o:     file format elf32-ba

Disassembly of section .text:

00000000 <___ieee754_exp>:
   0:	47 ae 60                	b.entri    0x7,0x6
   3:	31 41 2c                	b.addi     r10,r1,0x34
   6:	05 a3                   	b.mov      r13,r3
   8:	05 c4                   	b.mov      r14,r4
   a:	6d 83 f9                	b.srli     r12,r3,0x1f
   d:	94 c3 ff ff ff fe       	b.andi     r6,r3,0x7fffffff
  13:	98 a0 82 74 61 02       	b.ori      r5,r0,0x40862e41
  19:	d3 8a 6b 60             	b.bgeu     r5,r6,86 <___ieee754_exp+0x86>
  1d:	99 00 ff ff f7 fe       	b.ori      r8,r0,0x7fefffff
  23:	d3 90 6d 80             	b.bgeu     r8,r6,3e <___ieee754_exp+0x3e>
  27:	94 e3 ff ff f0 00       	b.andi     r7,r3,0xfffff
  2d:	60 e7 21                	b.or       r7,r7,r4
  30:	04 a3                   	b.mov      r5,r3
  32:	04 c4                   	b.mov      r6,r4
  34:	d0 40 7e 68             	b.bnei     r7,0x0,19b <___ieee754_exp+0x19b>
  38:	d0 00 c6 8c             	b.beqi     r12,0x0,34e <___ieee754_exp+0x34e>
  3c:	0f 08                   	b.j        7f <___ieee754_exp+0x7f>
  3e:	98 a0 42 74 61 02       	b.ori      r5,r0,0x40862e42
  44:	98 c0 f7 9c 5f 7f       	b.ori      r6,r0,0xfefa39ef
  4a:	a4 00 00 00 00 00       	b.jal      4a <___ieee754_exp+0x4a>
  50:	44 03 68                	b.blesi    r3,0x0,66 <___ieee754_exp+0x66>
  53:	98 60 3c 27 ec 7e       	b.ori      r3,r0,0x7e37e43c
  59:	98 80 39 ae 00 11       	b.ori      r4,r0,0x8800759c
  5f:	04 a3                   	b.mov      r5,r3
  61:	04 c4                   	b.mov      r6,r4
  63:	46 87 40                	b.j        344 <___ieee754_exp+0x344>
  66:	04 6d                   	b.mov      r3,r13
  68:	04 8e                   	b.mov      r4,r14
  6a:	98 a0 08 92 e1 03       	b.ori      r5,r0,0xc0874910
  70:	98 c0 8a 0c b4 ab       	b.ori      r6,r0,0xd52d3051
  76:	a4 00 00 00 00 00       	b.jal      76 <___ieee754_exp+0x76>
  7c:	42 03 0a                	b.bgesi    r3,0x0,cc <___ieee754_exp+0xcc>
  7f:	01 a0                   	b.movi     r13,0x0
  81:	01 c0                   	b.movi     r14,0x0
  83:	46 d3 40                	b.j        34e <___ieee754_exp+0x34e>
  86:	98 a0 42 74 6b fc       	b.ori      r5,r0,0x3fd62e42
  8c:	d3 8a 66 b0             	b.bgeu     r5,r6,162 <___ieee754_exp+0x162>
  90:	98 e0 8d 45 0f fc       	b.ori      r7,r0,0x3ff0a2b1
  96:	d3 cc 76 c0             	b.bgtu     r6,r7,cc <___ieee754_exp+0xcc>
  9a:	6d 6c c0                	b.slli     r11,r12,0x3
  9d:	90 eb 00 00 00 00       	b.addi     r7,r11,0x0
  a3:	50 a7 00                	b.mlwz     r5,0x0(r7),0x0
  a6:	a4 00 00 00 00 00       	b.jal      a6 <___ieee754_exp+0xa6>
  ac:	31 0a 33                	b.addi     r8,r10,0xffffffcc
  af:	54 68 00                	b.msw      0x0(r8),r3,0x0
  b2:	91 6b 08 00 00 00       	b.addi     r11,r11,0x10
  b8:	50 ab 00                	b.mlwz     r5,0x0(r11),0x0
  bb:	30 ea 2b                	b.addi     r7,r10,0xffffffd4
  be:	54 a7 00                	b.msw      0x0(r7),r5,0x0
  c1:	60 e0 65                	b.sub      r7,r0,r12
  c4:	60 e7 65                	b.sub      r7,r7,r12
  c7:	31 e7 80                	b.addi     r15,r7,0x1
  ca:	0c 04                   	b.j        14a <___ieee754_exp+0x14a>
  cc:	04 6d                   	b.mov      r3,r13
  ce:	04 8e                   	b.mov      r4,r14
  d0:	98 a0 e2 a8 ef fc       	b.ori      r5,r0,0x3ff71547
  d6:	98 c0 7f 41 d4 a6       	b.ori      r6,r0,0x652b82fe
  dc:	a4 00 00 00 00 00       	b.jal      dc <___ieee754_exp+0xdc>
  e2:	6c ec c0                	b.slli     r7,r12,0x3
  e5:	90 e7 04 00 00 00       	b.addi     r7,r7,0x20
  eb:	50 a7 00                	b.mlwz     r5,0x0(r7),0x0
  ee:	a4 00 00 00 00 00       	b.jal      ee <___ieee754_exp+0xee>
  f4:	a4 00 00 00 00 00       	b.jal      f4 <___ieee754_exp+0xf4>
  fa:	05 e3                   	b.mov      r15,r3
  fc:	a4 00 00 00 00 00       	b.jal      fc <___ieee754_exp+0xfc>
 102:	05 63                   	b.mov      r11,r3
 104:	05 84                   	b.mov      r12,r4
 106:	04 6b                   	b.mov      r3,r11
 108:	98 a0 42 74 67 fc       	b.ori      r5,r0,0x3fe62e42
 10e:	98 c0 00 00 07 7f       	b.ori      r6,r0,0xfee00000
 114:	a4 00 00 00 00 00       	b.jal      114 <___ieee754_exp+0x114>
 11a:	04 a3                   	b.mov      r5,r3
 11c:	04 c4                   	b.mov      r6,r4
 11e:	04 6d                   	b.mov      r3,r13
 120:	04 8e                   	b.mov      r4,r14
 122:	a4 00 00 00 00 00       	b.jal      122 <___ieee754_exp+0x122>
 128:	31 0a 33                	b.addi     r8,r10,0xffffffcc
 12b:	54 68 00                	b.msw      0x0(r8),r3,0x0
 12e:	04 6b                   	b.mov      r3,r11
 130:	04 8c                   	b.mov      r4,r12
 132:	98 a0 f7 9c 57 bc       	b.ori      r5,r0,0x3dea39ef
 138:	98 c0 6e 3c 9e ac       	b.ori      r6,r0,0x35793c76
 13e:	a4 00 00 00 00 00       	b.jal      13e <___ieee754_exp+0x13e>
 144:	30 aa 2b                	b.addi     r5,r10,0xffffffd4
 147:	54 65 00                	b.msw      0x0(r5),r3,0x0
 14a:	30 ca 33                	b.addi     r6,r10,0xffffffcc
 14d:	50 66 00                	b.mlwz     r3,0x0(r6),0x0
 150:	30 ea 2b                	b.addi     r7,r10,0xffffffd4
 153:	50 a7 00                	b.mlwz     r5,0x0(r7),0x0
 156:	a4 00 00 00 00 00       	b.jal      156 <___ieee754_exp+0x156>
 15c:	05 a3                   	b.mov      r13,r3
 15e:	05 c4                   	b.mov      r14,r4
 160:	0e 88                   	b.j        1a5 <___ieee754_exp+0x1a5>
 162:	99 00 ff ff f4 7c       	b.ori      r8,r0,0x3e2fffff
 168:	d3 cc 8d c0             	b.bgtu     r6,r8,1a3 <___ieee754_exp+0x1a3>
 16c:	98 a0 3c 27 ec 7e       	b.ori      r5,r0,0x7e37e43c
 172:	98 c0 39 ae 00 11       	b.ori      r6,r0,0x8800759c
 178:	a4 00 00 00 00 00       	b.jal      178 <___ieee754_exp+0x178>
 17e:	98 a0 00 00 0f fc       	b.ori      r5,r0,0x3ff00000
 184:	00 c0                   	b.movi     r6,0x0
 186:	a4 00 00 00 00 00       	b.jal      186 <___ieee754_exp+0x186>
 18c:	44 03 98                	b.blesi    r3,0x0,1a5 <___ieee754_exp+0x1a5>
 18f:	04 6d                   	b.mov      r3,r13
 191:	04 8e                   	b.mov      r4,r14
 193:	98 a0 00 00 0f fc       	b.ori      r5,r0,0x3ff00000
 199:	00 c0                   	b.movi     r6,0x0
 19b:	a4 00 00 00 00 00       	b.jal      19b <___ieee754_exp+0x19b>
 1a1:	0e 56                   	b.j        34a <___ieee754_exp+0x34a>
 1a3:	01 e0                   	b.movi     r15,0x0
 1a5:	04 6d                   	b.mov      r3,r13
 1a7:	04 8e                   	b.mov      r4,r14
 1a9:	04 ad                   	b.mov      r5,r13
 1ab:	04 ce                   	b.mov      r6,r14
 1ad:	a4 00 00 00 00 00       	b.jal      1ad <___ieee754_exp+0x1ad>
 1b3:	05 63                   	b.mov      r11,r3
 1b5:	05 84                   	b.mov      r12,r4
 1b7:	04 6b                   	b.mov      r3,r11
 1b9:	98 a0 96 ec 66 7c       	b.ori      r5,r0,0x3e663769
 1bf:	98 c0 0b 25 7d 4e       	b.ori      r6,r0,0x72bea4d0
 1c5:	a4 00 00 00 00 00       	b.jal      1c5 <___ieee754_exp+0x1c5>
 1cb:	98 a0 82 bd dd 7c       	b.ori      r5,r0,0x3ebbbd41
 1d1:	98 c0 8f d6 4b a3       	b.ori      r6,r0,0xc5d26bf1
 1d7:	a4 00 00 00 00 00       	b.jal      1d7 <___ieee754_exp+0x1d7>
 1dd:	04 a3                   	b.mov      r5,r3
 1df:	04 c4                   	b.mov      r6,r4
 1e1:	04 6b                   	b.mov      r3,r11
 1e3:	04 8c                   	b.mov      r4,r12
 1e5:	a4 00 00 00 00 00       	b.jal      1e5 <___ieee754_exp+0x1e5>
 1eb:	98 a0 56 6a 88 fc       	b.ori      r5,r0,0x3f11566a
 1f1:	98 c0 34 7b a4 f5       	b.ori      r6,r0,0xaf25de2c
 1f7:	a4 00 00 00 00 00       	b.jal      1f7 <___ieee754_exp+0x1f7>
 1fd:	04 a3                   	b.mov      r5,r3
 1ff:	04 c4                   	b.mov      r6,r4
 201:	04 6b                   	b.mov      r3,r11
 203:	04 8c                   	b.mov      r4,r12
 205:	a4 00 00 00 00 00       	b.jal      205 <___ieee754_exp+0x205>
 20b:	98 a0 36 83 66 fc       	b.ori      r5,r0,0x3f66c16c
 211:	98 c0 c9 bd 7d 68       	b.ori      r6,r0,0x16bebd93
 217:	a4 00 00 00 00 00       	b.jal      217 <___ieee754_exp+0x217>
 21d:	04 a3                   	b.mov      r5,r3
 21f:	04 c4                   	b.mov      r6,r4
 221:	04 6b                   	b.mov      r3,r11
 223:	04 8c                   	b.mov      r4,r12
 225:	a4 00 00 00 00 00       	b.jal      225 <___ieee754_exp+0x225>
 22b:	98 a0 aa aa a3 fc       	b.ori      r5,r0,0x3fc55555
 231:	98 c0 7c aa aa aa       	b.ori      r6,r0,0x5555553e
 237:	a4 00 00 00 00 00       	b.jal      237 <___ieee754_exp+0x237>
 23d:	04 a3                   	b.mov      r5,r3
 23f:	04 c4                   	b.mov      r6,r4
 241:	04 6b                   	b.mov      r3,r11
 243:	04 8c                   	b.mov      r4,r12
 245:	a4 00 00 00 00 00       	b.jal      245 <___ieee754_exp+0x245>
 24b:	04 a3                   	b.mov      r5,r3
 24d:	04 c4                   	b.mov      r6,r4
 24f:	04 6d                   	b.mov      r3,r13
 251:	04 8e                   	b.mov      r4,r14
 253:	a4 00 00 00 00 00       	b.jal      253 <___ieee754_exp+0x253>
 259:	30 aa 3b                	b.addi     r5,r10,0xffffffdc
 25c:	54 65 00                	b.msw      0x0(r5),r3,0x0
 25f:	41 0f 9a                	b.bnei     r15,0x0,2b8 <___ieee754_exp+0x2b8>
 262:	04 6d                   	b.mov      r3,r13
 264:	04 8e                   	b.mov      r4,r14
 266:	04 e5                   	b.mov      r7,r5
 268:	2c a5 40                	b.lwz      r5,0x0(r5)
 26b:	2c c7 60                	b.lwz      r6,0x4(r7)
 26e:	a4 00 00 00 00 00       	b.jal      26e <___ieee754_exp+0x26e>
 274:	05 63                   	b.mov      r11,r3
 276:	05 84                   	b.mov      r12,r4
 278:	31 0a 3b                	b.addi     r8,r10,0xffffffdc
 27b:	50 68 00                	b.mlwz     r3,0x0(r8),0x0
 27e:	98 a0 00 00 00 02       	b.ori      r5,r0,0x40000000
 284:	00 c0                   	b.movi     r6,0x0
 286:	a4 00 00 00 00 00       	b.jal      286 <___ieee754_exp+0x286>
 28c:	04 a3                   	b.mov      r5,r3
 28e:	04 c4                   	b.mov      r6,r4
 290:	04 6b                   	b.mov      r3,r11
 292:	04 8c                   	b.mov      r4,r12
 294:	a4 00 00 00 00 00       	b.jal      294 <___ieee754_exp+0x294>
 29a:	04 ad                   	b.mov      r5,r13
 29c:	04 ce                   	b.mov      r6,r14
 29e:	a4 00 00 00 00 00       	b.jal      29e <___ieee754_exp+0x29e>
 2a4:	04 a3                   	b.mov      r5,r3
 2a6:	04 c4                   	b.mov      r6,r4
 2a8:	98 60 00 00 0f fc       	b.ori      r3,r0,0x3ff00000
 2ae:	00 80                   	b.movi     r4,0x0
 2b0:	a4 00 00 00 00 00       	b.jal      2b0 <___ieee754_exp+0x2b0>
 2b6:	0c a4                   	b.j        34a <___ieee754_exp+0x34a>
 2b8:	04 6d                   	b.mov      r3,r13
 2ba:	04 8e                   	b.mov      r4,r14
 2bc:	30 ea 3b                	b.addi     r7,r10,0xffffffdc
 2bf:	50 a7 00                	b.mlwz     r5,0x0(r7),0x0
 2c2:	a4 00 00 00 00 00       	b.jal      2c2 <___ieee754_exp+0x2c2>
 2c8:	05 63                   	b.mov      r11,r3
 2ca:	05 84                   	b.mov      r12,r4
 2cc:	98 60 00 00 00 02       	b.ori      r3,r0,0x40000000
 2d2:	00 80                   	b.movi     r4,0x0
 2d4:	31 0a 3b                	b.addi     r8,r10,0xffffffdc
 2d7:	50 a8 00                	b.mlwz     r5,0x0(r8),0x0
 2da:	a4 00 00 00 00 00       	b.jal      2da <___ieee754_exp+0x2da>
 2e0:	04 a3                   	b.mov      r5,r3
 2e2:	04 c4                   	b.mov      r6,r4
 2e4:	04 6b                   	b.mov      r3,r11
 2e6:	04 8c                   	b.mov      r4,r12
 2e8:	a4 00 00 00 00 00       	b.jal      2e8 <___ieee754_exp+0x2e8>
 2ee:	04 a3                   	b.mov      r5,r3
 2f0:	04 c4                   	b.mov      r6,r4
 2f2:	30 ea 2b                	b.addi     r7,r10,0xffffffd4
 2f5:	50 67 00                	b.mlwz     r3,0x0(r7),0x0
 2f8:	a4 00 00 00 00 00       	b.jal      2f8 <___ieee754_exp+0x2f8>
 2fe:	31 0a 33                	b.addi     r8,r10,0xffffffcc
 301:	50 a8 00                	b.mlwz     r5,0x0(r8),0x0
 304:	a4 00 00 00 00 00       	b.jal      304 <___ieee754_exp+0x304>
 30a:	04 a3                   	b.mov      r5,r3
 30c:	04 c4                   	b.mov      r6,r4
 30e:	98 60 00 00 0f fc       	b.ori      r3,r0,0x3ff00000
 314:	00 80                   	b.movi     r4,0x0
 316:	a4 00 00 00 00 00       	b.jal      316 <___ieee754_exp+0x316>
 31c:	05 63                   	b.mov      r11,r3
 31e:	d8 a0 c0 3f             	b.addi     r5,r0,0xfffffc03
 322:	d3 4a f0 80             	b.bgts     r5,r15,332 <___ieee754_exp+0x332>
 326:	6c cf 28                	b.slli     r6,r15,0x14
 329:	60 e6 5c                	b.add      r7,r6,r11
 32c:	05 a7                   	b.mov      r13,r7
 32e:	05 c4                   	b.mov      r14,r4
 330:	0d e0                   	b.j        34e <___ieee754_exp+0x34e>
 332:	d8 ef 17 c0             	b.addi     r7,r15,0x3e8
 336:	6c e7 28                	b.slli     r7,r7,0x14
 339:	60 67 5c                	b.add      r3,r7,r11
 33c:	98 a0 00 00 0e 80       	b.ori      r5,r0,0x1700000
 342:	00 c0                   	b.movi     r6,0x0
 344:	a4 00 00 00 00 00       	b.jal      344 <___ieee754_exp+0x344>
 34a:	05 a3                   	b.mov      r13,r3
 34c:	05 c4                   	b.mov      r14,r4
 34e:	04 6d                   	b.mov      r3,r13
 350:	04 8e                   	b.mov      r4,r14
 352:	47 be 60                	b.reti     0x7,0x6

e_fmod.o:     file format elf32-ba

Disassembly of section .text:

00000000 <___ieee754_fmod>:
   0:	47 ae 20                	b.entri    0x7,0x4
   3:	31 41 34                	b.addi     r10,r1,0x2c
   6:	30 ea 3b                	b.addi     r7,r10,0xffffffdc
   9:	2c 07 00                	b.sw       0x0(r7),r0
   c:	2c 07 20                	b.sw       0x4(r7),r0
   f:	30 ea 2b                	b.addi     r7,r10,0xffffffd4
  12:	2c 07 00                	b.sw       0x0(r7),r0
  15:	2c 07 20                	b.sw       0x4(r7),r0
  18:	05 a5                   	b.mov      r13,r5
  1a:	05 c6                   	b.mov      r14,r6
  1c:	05 64                   	b.mov      r11,r4
  1e:	05 86                   	b.mov      r12,r6
  20:	95 e3 00 00 00 01       	b.andi     r15,r3,0x80000000
  26:	95 03 ff ff ff fe       	b.andi     r8,r3,0x7fffffff
  2c:	94 a5 ff ff ff fe       	b.andi     r5,r5,0x7fffffff
  32:	60 e5 31                	b.or       r7,r5,r6
  35:	40 07 c4                	b.beqi     r7,0x0,58 <___ieee754_fmod+0x58>
  38:	98 c0 ff ff f7 fe       	b.ori      r6,r0,0x7fefffff
  3e:	d3 50 65 80             	b.bgts     r8,r6,58 <___ieee754_fmod+0x58>
  42:	60 e0 65                	b.sub      r7,r0,r12
  45:	60 ec 39                	b.or       r7,r12,r7
  48:	6c e7 f9                	b.srli     r7,r7,0x1f
  4b:	60 e5 39                	b.or       r7,r5,r7
  4e:	98 c0 00 00 0f fe       	b.ori      r6,r0,0x7ff00000
  54:	d3 8c 75 80             	b.bgeu     r6,r7,6e <___ieee754_fmod+0x6e>
  58:	04 ad                   	b.mov      r5,r13
  5a:	04 ce                   	b.mov      r6,r14
  5c:	a4 00 00 00 00 00       	b.jal      5c <___ieee754_fmod+0x5c>
  62:	04 a3                   	b.mov      r5,r3
  64:	04 c4                   	b.mov      r6,r4
  66:	a4 00 00 00 00 00       	b.jal      66 <___ieee754_fmod+0x66>
  6c:	0f de                   	b.j        25b <___ieee754_fmod+0x25b>
  6e:	d3 50 50 80             	b.bgts     r8,r5,7e <___ieee754_fmod+0x7e>
  72:	d3 4a 89 78             	b.bgts     r5,r8,25b <___ieee754_fmod+0x25b>
  76:	d3 d8 4a 78             	b.bgtu     r12,r4,25b <___ieee754_fmod+0x25b>
  7a:	d2 88 ce d8             	b.beq      r4,r12,231 <___ieee754_fmod+0x231>
  7e:	6c e8 2a                	b.srai     r7,r8,0x14
  81:	d9 a7 80 3f             	b.addi     r13,r7,0xfffffc01
  85:	98 e0 ff ff f0 00       	b.ori      r7,r0,0xfffff
  8b:	d3 50 75 40             	b.bgts     r8,r7,b5 <___ieee754_fmod+0xb5>
  8f:	04 eb                   	b.mov      r7,r11
  91:	d9 a0 b7 df             	b.addi     r13,r0,0xfffffbed
  95:	40 08 50                	b.beqi     r8,0x0,9f <___ieee754_fmod+0x9f>
  98:	0c c0                   	b.j        a4 <___ieee754_fmod+0xa4>
  9a:	01 bf                   	b.addi     r13,r13,0xffffffff
  9c:	6c e7 80                	b.slli     r7,r7,0x1
  9f:	43 07 df                	b.bgtsi    r7,0x0,9a <___ieee754_fmod+0x9a>
  a2:	0f 20                   	b.j        b5 <___ieee754_fmod+0xb5>
  a4:	6c e8 d0                	b.slli     r7,r8,0xb
  a7:	d9 a0 40 3f             	b.addi     r13,r0,0xfffffc02
  ab:	0f 80                   	b.j        b2 <___ieee754_fmod+0xb2>
  ad:	01 bf                   	b.addi     r13,r13,0xffffffff
  af:	6c e7 80                	b.slli     r7,r7,0x1
  b2:	43 07 df                	b.bgtsi    r7,0x0,ad <___ieee754_fmod+0xad>
  b5:	6c e5 2a                	b.srai     r7,r5,0x14
  b8:	d8 67 80 3f             	b.addi     r3,r7,0xfffffc01
  bc:	98 c0 ff ff f0 00       	b.ori      r6,r0,0xfffff
  c2:	d3 4a 65 40             	b.bgts     r5,r6,ec <___ieee754_fmod+0xec>
  c6:	04 ec                   	b.mov      r7,r12
  c8:	d8 60 b7 df             	b.addi     r3,r0,0xfffffbed
  cc:	40 05 50                	b.beqi     r5,0x0,d6 <___ieee754_fmod+0xd6>
  cf:	0c c0                   	b.j        db <___ieee754_fmod+0xdb>
  d1:	00 7f                   	b.addi     r3,r3,0xffffffff
  d3:	6c e7 80                	b.slli     r7,r7,0x1
  d6:	43 07 df                	b.bgtsi    r7,0x0,d1 <___ieee754_fmod+0xd1>
  d9:	0f 20                   	b.j        ec <___ieee754_fmod+0xec>
  db:	6c e5 d0                	b.slli     r7,r5,0xb
  de:	d8 60 40 3f             	b.addi     r3,r0,0xfffffc02
  e2:	0f 80                   	b.j        e9 <___ieee754_fmod+0xe9>
  e4:	00 7f                   	b.addi     r3,r3,0xffffffff
  e6:	6c e7 80                	b.slli     r7,r7,0x1
  e9:	43 07 df                	b.bgtsi    r7,0x0,e4 <___ieee754_fmod+0xe4>
  ec:	94 e8 ff ff f0 00       	b.andi     r7,r8,0xfffff
  f2:	98 47 00 00 08 00       	b.ori      r2,r7,0x100000
  f8:	d8 e0 40 3f             	b.addi     r7,r0,0xfffffc02
  fc:	d3 1a 75 40             	b.bges     r13,r7,126 <___ieee754_fmod+0x126>
 100:	60 87 6d                	b.sub      r4,r7,r13
 103:	38 c0 f8                	b.ori      r6,r0,0x1f
 106:	d3 48 61 80             	b.bgts     r4,r6,11e <___ieee754_fmod+0x11e>
 10a:	60 c8 26                	b.sll      r6,r8,r4
 10d:	38 e0 04                	b.ori      r7,r0,0x20
 110:	60 e7 25                	b.sub      r7,r7,r4
 113:	60 eb 3f                	b.srl      r7,r11,r7
 116:	60 46 39                	b.or       r2,r6,r7
 119:	61 6b 26                	b.sll      r11,r11,r4
 11c:	0d 40                   	b.j        126 <___ieee754_fmod+0x126>
 11e:	30 e4 07                	b.addi     r7,r4,0xffffffe0
 121:	60 4b 3e                	b.sll      r2,r11,r7
 124:	01 60                   	b.movi     r11,0x0
 126:	94 e5 ff ff f0 00       	b.andi     r7,r5,0xfffff
 12c:	99 c7 00 00 08 00       	b.ori      r14,r7,0x100000
 132:	d8 e0 40 3f             	b.addi     r7,r0,0xfffffc02
 136:	d3 06 75 40             	b.bges     r3,r7,160 <___ieee754_fmod+0x160>
 13a:	60 87 1d                	b.sub      r4,r7,r3
 13d:	38 c0 f8                	b.ori      r6,r0,0x1f
 140:	d3 48 61 80             	b.bgts     r4,r6,158 <___ieee754_fmod+0x158>
 144:	60 c5 26                	b.sll      r6,r5,r4
 147:	38 e0 04                	b.ori      r7,r0,0x20
 14a:	60 e7 25                	b.sub      r7,r7,r4
 14d:	60 ec 3f                	b.srl      r7,r12,r7
 150:	61 c6 39                	b.or       r14,r6,r7
 153:	61 8c 26                	b.sll      r12,r12,r4
 156:	0d 40                   	b.j        160 <___ieee754_fmod+0x160>
 158:	30 e4 07                	b.addi     r7,r4,0xffffffe0
 15b:	61 cc 3e                	b.sll      r14,r12,r7
 15e:	01 80                   	b.movi     r12,0x0
 160:	61 0d 1d                	b.sub      r8,r13,r3
 163:	0d 30                   	b.j        195 <___ieee754_fmod+0x195>
 165:	30 e6 ff                	b.addi     r7,r6,0xffffffff
 168:	3d ec 58                	b.sfgtu    r12,r11
 16b:	64 c7 32                	b.cmov     r6,r7,r6
 16e:	42 06 88                	b.bgesi    r6,0x0,17f <___ieee754_fmod+0x17f>
 171:	6c c2 80                	b.slli     r6,r2,0x1
 174:	6c eb f9                	b.srli     r7,r11,0x1f
 177:	60 46 3c                	b.add      r2,r6,r7
 17a:	6d 6b 80                	b.slli     r11,r11,0x1
 17d:	0c 60                   	b.j        195 <___ieee754_fmod+0x195>
 17f:	60 8b 65                	b.sub      r4,r11,r12
 182:	60 e6 21                	b.or       r7,r6,r4
 185:	d0 00 73 50             	b.beqi     r7,0x0,231 <___ieee754_fmod+0x231>
 189:	6c c6 80                	b.slli     r6,r6,0x1
 18c:	6c e4 f9                	b.srli     r7,r4,0x1f
 18f:	60 46 3c                	b.add      r2,r6,r7
 192:	6d 64 80                	b.slli     r11,r4,0x1
 195:	01 1f                   	b.addi     r8,r8,0xffffffff
 197:	60 c2 75                	b.sub      r6,r2,r14
 19a:	d0 7e 8d 3f             	b.bnei     r8,0xffffffff,165 <___ieee754_fmod+0x165>
 19e:	30 e6 ff                	b.addi     r7,r6,0xffffffff
 1a1:	3d ec 58                	b.sfgtu    r12,r11
 1a4:	64 c7 32                	b.cmov     r6,r7,r6
 1a7:	45 06 10                	b.bltsi    r6,0x0,1af <___ieee754_fmod+0x1af>
 1aa:	04 46                   	b.mov      r2,r6
 1ac:	61 6b 65                	b.sub      r11,r11,r12
 1af:	60 e2 59                	b.or       r7,r2,r11
 1b2:	41 07 c8                	b.bnei     r7,0x0,1c5 <___ieee754_fmod+0x1c5>
 1b5:	0c f8                   	b.j        231 <___ieee754_fmod+0x231>
 1b7:	6c c2 80                	b.slli     r6,r2,0x1
 1ba:	6c eb f9                	b.srli     r7,r11,0x1f
 1bd:	60 46 3c                	b.add      r2,r6,r7
 1c0:	6d 6b 80                	b.slli     r11,r11,0x1
 1c3:	00 7f                   	b.addi     r3,r3,0xffffffff
 1c5:	98 e0 ff ff f0 00       	b.ori      r7,r0,0xfffff
 1cb:	d3 0e 23 7f             	b.bges     r7,r2,1b7 <___ieee754_fmod+0x1b7>
 1cf:	d8 c0 40 3f             	b.addi     r6,r0,0xfffffc02
 1d3:	d3 4c 32 40             	b.bgts     r6,r3,1f7 <___ieee754_fmod+0x1f7>
 1d7:	d8 c3 ff c0             	b.addi     r6,r3,0x3ff
 1db:	6c c6 28                	b.slli     r6,r6,0x14
 1de:	90 e2 00 00 0f ff       	b.addi     r7,r2,0xfff00000
 1e4:	60 e7 79                	b.or       r7,r7,r15
 1e7:	60 e6 39                	b.or       r7,r6,r7
 1ea:	cc ea 3b ff             	b.sw       0xffffffdc(r10),r7
 1ee:	cd 6a 07 ff             	b.sw       0xffffffe0(r10),r11
 1f2:	30 ea 3b                	b.addi     r7,r10,0xffffffdc
 1f5:	0c 48                   	b.j        23d <___ieee754_fmod+0x23d>
 1f7:	d8 e0 40 3f             	b.addi     r7,r0,0xfffffc02
 1fb:	60 a7 1d                	b.sub      r5,r7,r3
 1fe:	38 c0 28                	b.ori      r6,r0,0x14
 201:	d3 4a 61 80             	b.bgts     r5,r6,219 <___ieee754_fmod+0x219>
 205:	60 cb 2f                	b.srl      r6,r11,r5
 208:	38 e0 04                	b.ori      r7,r0,0x20
 20b:	60 e7 2d                	b.sub      r7,r7,r5
 20e:	60 e2 3e                	b.sll      r7,r2,r7
 211:	60 e6 39                	b.or       r7,r6,r7
 214:	64 c2 28                	b.sra      r6,r2,r5
 217:	0f 30                   	b.j        24a <___ieee754_fmod+0x24a>
 219:	38 e0 f8                	b.ori      r7,r0,0x1f
 21c:	d3 4a 76 40             	b.bgts     r5,r7,242 <___ieee754_fmod+0x242>
 220:	38 e0 04                	b.ori      r7,r0,0x20
 223:	60 e7 2d                	b.sub      r7,r7,r5
 226:	60 e2 3e                	b.sll      r7,r2,r7
 229:	60 cb 2f                	b.srl      r6,r11,r5
 22c:	60 e7 31                	b.or       r7,r7,r6
 22f:	0e 60                   	b.j        248 <___ieee754_fmod+0x248>
 231:	6c ef f9                	b.srli     r7,r15,0x1f
 234:	6c e7 c0                	b.slli     r7,r7,0x3
 237:	90 e7 00 00 00 00       	b.addi     r7,r7,0x0
 23d:	50 67 00                	b.mlwz     r3,0x0(r7),0x0
 240:	0f 60                   	b.j        25b <___ieee754_fmod+0x25b>
 242:	30 e5 07                	b.addi     r7,r5,0xffffffe0
 245:	64 e2 38                	b.sra      r7,r2,r7
 248:	04 cf                   	b.mov      r6,r15
 24a:	61 e6 79                	b.or       r15,r6,r15
 24d:	cd ea 2b ff             	b.sw       0xffffffd4(r10),r15
 251:	cc ea 1b ff             	b.sw       0xffffffd8(r10),r7
 255:	30 ca 2b                	b.addi     r6,r10,0xffffffd4
 258:	50 66 00                	b.mlwz     r3,0x0(r6),0x0
 25b:	47 be 20                	b.reti     0x7,0x4

e_hypot.o:     file format elf32-ba

Disassembly of section .text:

00000000 <___ieee754_hypot>:
   0:	47 ae 48                	b.entri    0x7,0x12
   3:	31 41 26                	b.addi     r10,r1,0x64
   6:	95 e3 ff ff ff fe       	b.andi     r15,r3,0x7fffffff
   c:	95 a5 ff ff ff fe       	b.andi     r13,r5,0x7fffffff
  12:	05 84                   	b.mov      r12,r4
  14:	30 4a 3d                	b.addi     r2,r10,0xffffffbc
  17:	54 a2 00                	b.msw      0x0(r2),r5,0x0
  1a:	d3 1e df 00             	b.bges     r15,r13,29 <___ieee754_hypot+0x29>
  1e:	05 86                   	b.mov      r12,r6
  20:	54 62 00                	b.msw      0x0(r2),r3,0x0
  23:	04 ed                   	b.mov      r7,r13
  25:	05 af                   	b.mov      r13,r15
  27:	05 e7                   	b.mov      r15,r7
  29:	04 cc                   	b.mov      r6,r12
  2b:	30 ea 33                	b.addi     r7,r10,0xffffffcc
  2e:	2d e7 00                	b.sw       0x0(r7),r15
  31:	2d 87 20                	b.sw       0x4(r7),r12
  34:	30 4a 3d                	b.addi     r2,r10,0xffffffbc
  37:	2d 82 60                	b.lwz      r12,0x4(r2)
  3a:	30 8a 3b                	b.addi     r4,r10,0xffffffdc
  3d:	2d a4 00                	b.sw       0x0(r4),r13
  40:	2d 84 20                	b.sw       0x4(r4),r12
  43:	60 ef 6d                	b.sub      r7,r15,r13
  46:	98 40 00 00 03 c0       	b.ori      r2,r0,0x3c00000
  4c:	d3 04 7a 80             	b.bges     r2,r7,61 <___ieee754_hypot+0x61>
  50:	04 6f                   	b.mov      r3,r15
  52:	04 86                   	b.mov      r4,r6
  54:	04 ad                   	b.mov      r5,r13
  56:	04 cc                   	b.mov      r6,r12
  58:	a4 00 00 00 00 00       	b.jal      58 <___ieee754_hypot+0x58>
  5e:	46 c9 40                	b.j        2f1 <___ieee754_hypot+0x2f1>
  61:	cc 0a 13 ff             	b.sw       0xffffffc8(r10),r0
  65:	98 80 00 00 0c fa       	b.ori      r4,r0,0x5f300000
  6b:	d3 08 fd 60             	b.bges     r4,r15,d6 <___ieee754_hypot+0xd6>
  6f:	98 e0 ff ff f7 fe       	b.ori      r7,r0,0x7fefffff
  75:	d3 0e fd c0             	b.bges     r7,r15,b0 <___ieee754_hypot+0xb0>
  79:	94 ef ff ff f0 00       	b.andi     r7,r15,0xfffff
  7f:	60 e7 31                	b.or       r7,r7,r6
  82:	04 6f                   	b.mov      r3,r15
  84:	04 86                   	b.mov      r4,r6
  86:	40 07 b0                	b.beqi     r7,0x0,93 <___ieee754_hypot+0x93>
  89:	04 ad                   	b.mov      r5,r13
  8b:	04 cc                   	b.mov      r6,r12
  8d:	a4 00 00 00 00 00       	b.jal      8d <___ieee754_hypot+0x8d>
  93:	98 e0 00 00 0f fe       	b.ori      r7,r0,0x7ff00000
  99:	60 ed 3a                	b.xor      r7,r13,r7
  9c:	cc 4a 47 ff             	b.lwz      r2,0xffffffe0(r10)
  a0:	60 e7 11                	b.or       r7,r7,r2
  a3:	d0 40 77 24             	b.bnei     r7,0x0,2f1 <___ieee754_hypot+0x2f1>
  a7:	30 ca 3b                	b.addi     r6,r10,0xffffffdc
  aa:	50 66 00                	b.mlwz     r3,0x0(r6),0x0
  ad:	46 22 40                	b.j        2f1 <___ieee754_hypot+0x2f1>
  b0:	91 ef 00 00 01 5b       	b.addi     r15,r15,0xda800000
  b6:	91 ad 00 00 01 5b       	b.addi     r13,r13,0xda800000
  bc:	30 4a 33                	b.addi     r2,r10,0xffffffcc
  bf:	2d e2 00                	b.sw       0x0(r2),r15
  c2:	2c c2 20                	b.sw       0x4(r2),r6
  c5:	30 8a 3b                	b.addi     r4,r10,0xffffffdc
  c8:	2d a4 00                	b.sw       0x0(r4),r13
  cb:	2d 84 20                	b.sw       0x4(r4),r12
  ce:	d8 c0 1a 40             	b.addi     r6,r0,0x258
  d2:	cc ca 13 ff             	b.sw       0xffffffc8(r10),r6
  d6:	98 e0 ff ff f5 04       	b.ori      r7,r0,0x20afffff
  dc:	d3 5a 7a 90             	b.bgts     r13,r7,171 <___ieee754_hypot+0x171>
  e0:	98 40 ff ff f0 00       	b.ori      r2,r0,0xfffff
  e6:	d3 5a 2e a0             	b.bgts     r13,r2,13d <___ieee754_hypot+0x13d>
  ea:	cc 8a 47 ff             	b.lwz      r4,0xffffffe0(r10)
  ee:	60 ed 21                	b.or       r7,r13,r4
  f1:	30 ca 33                	b.addi     r6,r10,0xffffffcc
  f4:	50 66 00                	b.mlwz     r3,0x0(r6),0x0
  f7:	d0 00 75 f8             	b.beqi     r7,0x0,2f1 <___ieee754_hypot+0x2f1>
  fb:	01 80                   	b.movi     r12,0x0
  fd:	99 60 00 00 0b fe       	b.ori      r11,r0,0x7fd00000
 103:	30 ea 3b                	b.addi     r7,r10,0xffffffdc
 106:	50 67 00                	b.mlwz     r3,0x0(r7),0x0
 109:	04 ab                   	b.mov      r5,r11
 10b:	04 cc                   	b.mov      r6,r12
 10d:	a4 00 00 00 00 00       	b.jal      10d <___ieee754_hypot+0x10d>
 113:	30 4a 3b                	b.addi     r2,r10,0xffffffdc
 116:	54 62 00                	b.msw      0x0(r2),r3,0x0
 119:	30 ca 33                	b.addi     r6,r10,0xffffffcc
 11c:	50 66 00                	b.mlwz     r3,0x0(r6),0x0
 11f:	04 ab                   	b.mov      r5,r11
 121:	04 cc                   	b.mov      r6,r12
 123:	a4 00 00 00 00 00       	b.jal      123 <___ieee754_hypot+0x123>
 129:	30 ea 33                	b.addi     r7,r10,0xffffffcc
 12c:	54 67 00                	b.msw      0x0(r7),r3,0x0
 12f:	cc 4a 53 ff             	b.lwz      r2,0xffffffc8(r10)
 133:	d8 42 40 3f             	b.addi     r2,r2,0xfffffc02
 137:	cc 4a 13 ff             	b.sw       0xffffffc8(r10),r2
 13b:	0d b0                   	b.j        171 <___ieee754_hypot+0x171>
 13d:	91 ef 00 00 01 a4       	b.addi     r15,r15,0x25800000
 143:	91 ad 00 00 01 a4       	b.addi     r13,r13,0x25800000
 149:	cc 8a 53 ff             	b.lwz      r4,0xffffffc8(r10)
 14d:	d8 84 15 bf             	b.addi     r4,r4,0xfffffda8
 151:	cc 8a 13 ff             	b.sw       0xffffffc8(r10),r4
 155:	30 ca 33                	b.addi     r6,r10,0xffffffcc
 158:	2d 06 60                	b.lwz      r8,0x4(r6)
 15b:	04 46                   	b.mov      r2,r6
 15d:	2d e2 00                	b.sw       0x0(r2),r15
 160:	2d 06 20                	b.sw       0x4(r6),r8
 163:	30 8a 3b                	b.addi     r4,r10,0xffffffdc
 166:	2d 04 60                	b.lwz      r8,0x4(r4)
 169:	04 c4                   	b.mov      r6,r4
 16b:	2d a6 00                	b.sw       0x0(r6),r13
 16e:	2d 04 20                	b.sw       0x4(r4),r8
 171:	30 ea 33                	b.addi     r7,r10,0xffffffcc
 174:	50 67 00                	b.mlwz     r3,0x0(r7),0x0
 177:	30 4a 3b                	b.addi     r2,r10,0xffffffdc
 17a:	50 a2 00                	b.mlwz     r5,0x0(r2),0x0
 17d:	a4 00 00 00 00 00       	b.jal      17d <___ieee754_hypot+0x17d>
 183:	30 ca 2b                	b.addi     r6,r10,0xffffffd4
 186:	54 66 00                	b.msw      0x0(r6),r3,0x0
 189:	30 4a 3b                	b.addi     r2,r10,0xffffffdc
 18c:	50 a2 00                	b.mlwz     r5,0x0(r2),0x0
 18f:	a4 00 00 00 00 00       	b.jal      18f <___ieee754_hypot+0x18f>
 195:	d1 00 31 10             	b.blesi    r3,0x0,21d <___ieee754_hypot+0x21d>
 199:	01 80                   	b.movi     r12,0x0
 19b:	04 6f                   	b.mov      r3,r15
 19d:	04 8c                   	b.mov      r4,r12
 19f:	04 af                   	b.mov      r5,r15
 1a1:	04 cc                   	b.mov      r6,r12
 1a3:	a4 00 00 00 00 00       	b.jal      1a3 <___ieee754_hypot+0x1a3>
 1a9:	30 ca 2d                	b.addi     r6,r10,0xffffffb4
 1ac:	54 66 00                	b.msw      0x0(r6),r3,0x0
 1af:	cc ea 7b ff             	b.lwz      r7,0xffffffdc(r10)
 1b3:	90 a7 00 00 00 01       	b.addi     r5,r7,0x80000000
 1b9:	cc ca 47 ff             	b.lwz      r6,0xffffffe0(r10)
 1bd:	30 4a 3b                	b.addi     r2,r10,0xffffffdc
 1c0:	50 62 00                	b.mlwz     r3,0x0(r2),0x0
 1c3:	a4 00 00 00 00 00       	b.jal      1c3 <___ieee754_hypot+0x1c3>
 1c9:	30 ca 35                	b.addi     r6,r10,0xffffffac
 1cc:	54 66 00                	b.msw      0x0(r6),r3,0x0
 1cf:	30 ea 33                	b.addi     r7,r10,0xffffffcc
 1d2:	50 67 00                	b.mlwz     r3,0x0(r7),0x0
 1d5:	04 af                   	b.mov      r5,r15
 1d7:	04 cc                   	b.mov      r6,r12
 1d9:	a4 00 00 00 00 00       	b.jal      1d9 <___ieee754_hypot+0x1d9>
 1df:	05 a3                   	b.mov      r13,r3
 1e1:	05 c4                   	b.mov      r14,r4
 1e3:	30 4a 33                	b.addi     r2,r10,0xffffffcc
 1e6:	50 62 00                	b.mlwz     r3,0x0(r2),0x0
 1e9:	04 af                   	b.mov      r5,r15
 1eb:	04 cc                   	b.mov      r6,r12
 1ed:	a4 00 00 00 00 00       	b.jal      1ed <___ieee754_hypot+0x1ed>
 1f3:	04 a3                   	b.mov      r5,r3
 1f5:	04 c4                   	b.mov      r6,r4
 1f7:	04 6d                   	b.mov      r3,r13
 1f9:	04 8e                   	b.mov      r4,r14
 1fb:	a4 00 00 00 00 00       	b.jal      1fb <___ieee754_hypot+0x1fb>
 201:	04 a3                   	b.mov      r5,r3
 203:	04 c4                   	b.mov      r6,r4
 205:	30 ea 35                	b.addi     r7,r10,0xffffffac
 208:	50 67 00                	b.mlwz     r3,0x0(r7),0x0
 20b:	a4 00 00 00 00 00       	b.jal      20b <___ieee754_hypot+0x20b>
 211:	04 a3                   	b.mov      r5,r3
 213:	04 c4                   	b.mov      r6,r4
 215:	30 4a 2d                	b.addi     r2,r10,0xffffffb4
 218:	50 62 00                	b.mlwz     r3,0x0(r2),0x0
 21b:	0d 34                   	b.j        2cd <___ieee754_hypot+0x2cd>
 21d:	01 80                   	b.movi     r12,0x0
 21f:	05 6d                   	b.mov      r11,r13
 221:	01 c0                   	b.movi     r14,0x0
 223:	91 af 00 00 08 00       	b.addi     r13,r15,0x100000
 229:	04 6d                   	b.mov      r3,r13
 22b:	04 8e                   	b.mov      r4,r14
 22d:	04 ab                   	b.mov      r5,r11
 22f:	04 cc                   	b.mov      r6,r12
 231:	a4 00 00 00 00 00       	b.jal      231 <___ieee754_hypot+0x231>
 237:	30 ca 25                	b.addi     r6,r10,0xffffffa4
 23a:	54 66 00                	b.msw      0x0(r6),r3,0x0
 23d:	cc ea 6b ff             	b.lwz      r7,0xffffffd4(r10)
 241:	90 a7 00 00 00 01       	b.addi     r5,r7,0x80000000
 247:	cc ca 5b ff             	b.lwz      r6,0xffffffd8(r10)
 24b:	30 4a 2b                	b.addi     r2,r10,0xffffffd4
 24e:	50 62 00                	b.mlwz     r3,0x0(r2),0x0
 251:	a4 00 00 00 00 00       	b.jal      251 <___ieee754_hypot+0x251>
 257:	30 ca 39                	b.addi     r6,r10,0xffffff9c
 25a:	54 66 00                	b.msw      0x0(r6),r3,0x0
 25d:	30 ea 3b                	b.addi     r7,r10,0xffffffdc
 260:	50 67 00                	b.mlwz     r3,0x0(r7),0x0
 263:	04 ab                   	b.mov      r5,r11
 265:	04 cc                   	b.mov      r6,r12
 267:	a4 00 00 00 00 00       	b.jal      267 <___ieee754_hypot+0x267>
 26d:	04 a3                   	b.mov      r5,r3
 26f:	04 c4                   	b.mov      r6,r4
 271:	04 6d                   	b.mov      r3,r13
 273:	04 8e                   	b.mov      r4,r14
 275:	a4 00 00 00 00 00       	b.jal      275 <___ieee754_hypot+0x275>
 27b:	05 63                   	b.mov      r11,r3
 27d:	05 84                   	b.mov      r12,r4
 27f:	30 4a 33                	b.addi     r2,r10,0xffffffcc
 282:	50 62 00                	b.mlwz     r3,0x0(r2),0x0
 285:	04 a3                   	b.mov      r5,r3
 287:	04 c4                   	b.mov      r6,r4
 289:	a4 00 00 00 00 00       	b.jal      289 <___ieee754_hypot+0x289>
 28f:	04 ad                   	b.mov      r5,r13
 291:	04 ce                   	b.mov      r6,r14
 293:	a4 00 00 00 00 00       	b.jal      293 <___ieee754_hypot+0x293>
 299:	30 ea 3b                	b.addi     r7,r10,0xffffffdc
 29c:	50 a7 00                	b.mlwz     r5,0x0(r7),0x0
 29f:	a4 00 00 00 00 00       	b.jal      29f <___ieee754_hypot+0x29f>
 2a5:	04 a3                   	b.mov      r5,r3
 2a7:	04 c4                   	b.mov      r6,r4
 2a9:	04 6b                   	b.mov      r3,r11
 2ab:	04 8c                   	b.mov      r4,r12
 2ad:	a4 00 00 00 00 00       	b.jal      2ad <___ieee754_hypot+0x2ad>
 2b3:	04 a3                   	b.mov      r5,r3
 2b5:	04 c4                   	b.mov      r6,r4
 2b7:	30 4a 39                	b.addi     r2,r10,0xffffff9c
 2ba:	50 62 00                	b.mlwz     r3,0x0(r2),0x0
 2bd:	a4 00 00 00 00 00       	b.jal      2bd <___ieee754_hypot+0x2bd>
 2c3:	04 a3                   	b.mov      r5,r3
 2c5:	04 c4                   	b.mov      r6,r4
 2c7:	30 ea 25                	b.addi     r7,r10,0xffffffa4
 2ca:	50 67 00                	b.mlwz     r3,0x0(r7),0x0
 2cd:	a4 00 00 00 00 00       	b.jal      2cd <___ieee754_hypot+0x2cd>
 2d3:	a4 00 00 00 00 00       	b.jal      2d3 <___ieee754_hypot+0x2d3>
 2d9:	cc 4a 53 ff             	b.lwz      r2,0xffffffc8(r10)
 2dd:	40 02 28                	b.beqi     r2,0x0,2f1 <___ieee754_hypot+0x2f1>
 2e0:	00 c0                   	b.movi     r6,0x0
 2e2:	6c e2 28                	b.slli     r7,r2,0x14
 2e5:	90 a7 00 00 0f fc       	b.addi     r5,r7,0x3ff00000
 2eb:	a4 00 00 00 00 00       	b.jal      2eb <___ieee754_hypot+0x2eb>
 2f1:	47 be 48                	b.reti     0x7,0x12

e_j0.o:     file format elf32-ba

Disassembly of section .text:

00000000 <_pzero>:
   0:	47 ae 00                	b.entri    0x7,0x0
   3:	31 41 38                	b.addi     r10,r1,0x1c
   6:	94 e3 ff ff ff fe       	b.andi     r7,r3,0x7fffffff
   c:	99 a0 00 00 00 00       	b.ori      r13,r0,0x0
  12:	99 e0 0c 00 00 00       	b.ori      r15,r0,0x30
  18:	98 c0 ff ff f8 02       	b.ori      r6,r0,0x401fffff
  1e:	d3 4e 63 c0             	b.bgts     r7,r6,5a <_pzero+0x5a>
  22:	99 a0 1a 00 00 00       	b.ori      r13,r0,0x58
  28:	99 e0 11 00 00 00       	b.ori      r15,r0,0x88
  2e:	98 c0 51 74 48 02       	b.ori      r6,r0,0x40122e8a
  34:	d3 4e 66 40             	b.bgts     r7,r6,5a <_pzero+0x5a>
  38:	99 a0 0d 00 00 00       	b.ori      r13,r0,0xb0
  3e:	99 e0 07 00 00 00       	b.ori      r15,r0,0xe0
  44:	98 c0 36 db 60 02       	b.ori      r6,r0,0x4006db6c
  4a:	d3 4e 60 80             	b.bgts     r7,r6,5a <_pzero+0x5a>
  4e:	99 a0 10 80 00 00       	b.ori      r13,r0,0x108
  54:	99 e0 1c 80 00 00       	b.ori      r15,r0,0x138
  5a:	04 a3                   	b.mov      r5,r3
  5c:	04 c4                   	b.mov      r6,r4
  5e:	a4 00 00 00 00 00       	b.jal      5e <_pzero+0x5e>
  64:	04 a3                   	b.mov      r5,r3
  66:	04 c4                   	b.mov      r6,r4
  68:	98 60 00 00 0f fc       	b.ori      r3,r0,0x3ff00000
  6e:	00 80                   	b.movi     r4,0x0
  70:	a4 00 00 00 00 00       	b.jal      70 <_pzero+0x70>
  76:	05 63                   	b.mov      r11,r3
  78:	05 84                   	b.mov      r12,r4
  7a:	04 6b                   	b.mov      r3,r11
  7c:	50 ad 14                	b.mlwz     r5,0x28(r13),0x0
  7f:	a4 00 00 00 00 00       	b.jal      7f <_pzero+0x7f>
  85:	50 ad 04                	b.mlwz     r5,0x20(r13),0x0
  88:	a4 00 00 00 00 00       	b.jal      88 <_pzero+0x88>
  8e:	04 a3                   	b.mov      r5,r3
  90:	04 c4                   	b.mov      r6,r4
  92:	04 6b                   	b.mov      r3,r11
  94:	04 8c                   	b.mov      r4,r12
  96:	a4 00 00 00 00 00       	b.jal      96 <_pzero+0x96>
  9c:	50 ad 18                	b.mlwz     r5,0x18(r13),0x0
  9f:	a4 00 00 00 00 00       	b.jal      9f <_pzero+0x9f>
  a5:	04 a3                   	b.mov      r5,r3
  a7:	04 c4                   	b.mov      r6,r4
  a9:	04 6b                   	b.mov      r3,r11
  ab:	04 8c                   	b.mov      r4,r12
  ad:	a4 00 00 00 00 00       	b.jal      ad <_pzero+0xad>
  b3:	50 ad 08                	b.mlwz     r5,0x10(r13),0x0
  b6:	a4 00 00 00 00 00       	b.jal      b6 <_pzero+0xb6>
  bc:	04 a3                   	b.mov      r5,r3
  be:	04 c4                   	b.mov      r6,r4
  c0:	04 6b                   	b.mov      r3,r11
  c2:	04 8c                   	b.mov      r4,r12
  c4:	a4 00 00 00 00 00       	b.jal      c4 <_pzero+0xc4>
  ca:	50 ad 10                	b.mlwz     r5,0x8(r13),0x0
  cd:	a4 00 00 00 00 00       	b.jal      cd <_pzero+0xcd>
  d3:	04 a3                   	b.mov      r5,r3
  d5:	04 c4                   	b.mov      r6,r4
  d7:	04 6b                   	b.mov      r3,r11
  d9:	04 8c                   	b.mov      r4,r12
  db:	a4 00 00 00 00 00       	b.jal      db <_pzero+0xdb>
  e1:	50 ad 00                	b.mlwz     r5,0x0(r13),0x0
  e4:	a4 00 00 00 00 00       	b.jal      e4 <_pzero+0xe4>
  ea:	05 a3                   	b.mov      r13,r3
  ec:	05 c4                   	b.mov      r14,r4
  ee:	04 6b                   	b.mov      r3,r11
  f0:	04 8c                   	b.mov      r4,r12
  f2:	50 af 04                	b.mlwz     r5,0x20(r15),0x0
  f5:	a4 00 00 00 00 00       	b.jal      f5 <_pzero+0xf5>
  fb:	50 af 18                	b.mlwz     r5,0x18(r15),0x0
  fe:	a4 00 00 00 00 00       	b.jal      fe <_pzero+0xfe>
 104:	04 a3                   	b.mov      r5,r3
 106:	04 c4                   	b.mov      r6,r4
 108:	04 6b                   	b.mov      r3,r11
 10a:	04 8c                   	b.mov      r4,r12
 10c:	a4 00 00 00 00 00       	b.jal      10c <_pzero+0x10c>
 112:	50 af 08                	b.mlwz     r5,0x10(r15),0x0
 115:	a4 00 00 00 00 00       	b.jal      115 <_pzero+0x115>
 11b:	04 a3                   	b.mov      r5,r3
 11d:	04 c4                   	b.mov      r6,r4
 11f:	04 6b                   	b.mov      r3,r11
 121:	04 8c                   	b.mov      r4,r12
 123:	a4 00 00 00 00 00       	b.jal      123 <_pzero+0x123>
 129:	50 af 10                	b.mlwz     r5,0x8(r15),0x0
 12c:	a4 00 00 00 00 00       	b.jal      12c <_pzero+0x12c>
 132:	04 a3                   	b.mov      r5,r3
 134:	04 c4                   	b.mov      r6,r4
 136:	04 6b                   	b.mov      r3,r11
 138:	04 8c                   	b.mov      r4,r12
 13a:	a4 00 00 00 00 00       	b.jal      13a <_pzero+0x13a>
 140:	50 af 00                	b.mlwz     r5,0x0(r15),0x0
 143:	a4 00 00 00 00 00       	b.jal      143 <_pzero+0x143>
 149:	04 a3                   	b.mov      r5,r3
 14b:	04 c4                   	b.mov      r6,r4
 14d:	04 6b                   	b.mov      r3,r11
 14f:	04 8c                   	b.mov      r4,r12
 151:	a4 00 00 00 00 00       	b.jal      151 <_pzero+0x151>
 157:	98 a0 00 00 0f fc       	b.ori      r5,r0,0x3ff00000
 15d:	00 c0                   	b.movi     r6,0x0
 15f:	a4 00 00 00 00 00       	b.jal      15f <_pzero+0x15f>
 165:	04 a3                   	b.mov      r5,r3
 167:	04 c4                   	b.mov      r6,r4
 169:	04 6d                   	b.mov      r3,r13
 16b:	04 8e                   	b.mov      r4,r14
 16d:	a4 00 00 00 00 00       	b.jal      16d <_pzero+0x16d>
 173:	98 a0 00 00 0f fc       	b.ori      r5,r0,0x3ff00000
 179:	00 c0                   	b.movi     r6,0x0
 17b:	a4 00 00 00 00 00       	b.jal      17b <_pzero+0x17b>
 181:	47 be 00                	b.reti     0x7,0x0

00000184 <_qzero>:
 184:	47 ae 40                	b.entri    0x7,0x2
 187:	31 41 24                	b.addi     r10,r1,0x24
 18a:	30 ca 3b                	b.addi     r6,r10,0xffffffdc
 18d:	54 66 00                	b.msw      0x0(r6),r3,0x0
 190:	cc ca 7b ff             	b.lwz      r6,0xffffffdc(r10)
 194:	94 e6 ff ff ff fe       	b.andi     r7,r6,0x7fffffff
 19a:	99 a0 06 80 00 00       	b.ori      r13,r0,0x160
 1a0:	99 e0 09 80 00 00       	b.ori      r15,r0,0x190
 1a6:	98 c0 ff ff f8 02       	b.ori      r6,r0,0x401fffff
 1ac:	d3 4e 63 c0             	b.bgts     r7,r6,1e8 <_qzero+0x64>
 1b0:	99 a0 03 80 00 00       	b.ori      r13,r0,0x1c0
 1b6:	99 e0 0f 80 00 00       	b.ori      r15,r0,0x1f0
 1bc:	98 c0 51 74 48 02       	b.ori      r6,r0,0x40122e8a
 1c2:	d3 4e 66 40             	b.bgts     r7,r6,1e8 <_qzero+0x64>
 1c6:	99 a0 04 40 00 00       	b.ori      r13,r0,0x220
 1cc:	99 e0 0a 40 00 00       	b.ori      r15,r0,0x250
 1d2:	98 c0 36 db 60 02       	b.ori      r6,r0,0x4006db6c
 1d8:	d3 4e 60 80             	b.bgts     r7,r6,1e8 <_qzero+0x64>
 1dc:	99 a0 01 40 00 00       	b.ori      r13,r0,0x280
 1e2:	99 e0 0d 40 00 00       	b.ori      r15,r0,0x2b0
 1e8:	30 ea 3b                	b.addi     r7,r10,0xffffffdc
 1eb:	50 67 00                	b.mlwz     r3,0x0(r7),0x0
 1ee:	04 a3                   	b.mov      r5,r3
 1f0:	04 c4                   	b.mov      r6,r4
 1f2:	a4 00 00 00 00 00       	b.jal      1f2 <_qzero+0x6e>
 1f8:	04 a3                   	b.mov      r5,r3
 1fa:	04 c4                   	b.mov      r6,r4
 1fc:	98 60 00 00 0f fc       	b.ori      r3,r0,0x3ff00000
 202:	00 80                   	b.movi     r4,0x0
 204:	a4 00 00 00 00 00       	b.jal      204 <_qzero+0x80>
 20a:	05 63                   	b.mov      r11,r3
 20c:	05 84                   	b.mov      r12,r4
 20e:	04 6b                   	b.mov      r3,r11
 210:	50 ad 14                	b.mlwz     r5,0x28(r13),0x0
 213:	a4 00 00 00 00 00       	b.jal      213 <_qzero+0x8f>
 219:	50 ad 04                	b.mlwz     r5,0x20(r13),0x0
 21c:	a4 00 00 00 00 00       	b.jal      21c <_qzero+0x98>
 222:	04 a3                   	b.mov      r5,r3
 224:	04 c4                   	b.mov      r6,r4
 226:	04 6b                   	b.mov      r3,r11
 228:	04 8c                   	b.mov      r4,r12
 22a:	a4 00 00 00 00 00       	b.jal      22a <_qzero+0xa6>
 230:	50 ad 18                	b.mlwz     r5,0x18(r13),0x0
 233:	a4 00 00 00 00 00       	b.jal      233 <_qzero+0xaf>
 239:	04 a3                   	b.mov      r5,r3
 23b:	04 c4                   	b.mov      r6,r4
 23d:	04 6b                   	b.mov      r3,r11
 23f:	04 8c                   	b.mov      r4,r12
 241:	a4 00 00 00 00 00       	b.jal      241 <_qzero+0xbd>
 247:	50 ad 08                	b.mlwz     r5,0x10(r13),0x0
 24a:	a4 00 00 00 00 00       	b.jal      24a <_qzero+0xc6>
 250:	04 a3                   	b.mov      r5,r3
 252:	04 c4                   	b.mov      r6,r4
 254:	04 6b                   	b.mov      r3,r11
 256:	04 8c                   	b.mov      r4,r12
 258:	a4 00 00 00 00 00       	b.jal      258 <_qzero+0xd4>
 25e:	50 ad 10                	b.mlwz     r5,0x8(r13),0x0
 261:	a4 00 00 00 00 00       	b.jal      261 <_qzero+0xdd>
 267:	04 a3                   	b.mov      r5,r3
 269:	04 c4                   	b.mov      r6,r4
 26b:	04 6b                   	b.mov      r3,r11
 26d:	04 8c                   	b.mov      r4,r12
 26f:	a4 00 00 00 00 00       	b.jal      26f <_qzero+0xeb>
 275:	50 ad 00                	b.mlwz     r5,0x0(r13),0x0
 278:	a4 00 00 00 00 00       	b.jal      278 <_qzero+0xf4>
 27e:	05 a3                   	b.mov      r13,r3
 280:	05 c4                   	b.mov      r14,r4
 282:	04 6b                   	b.mov      r3,r11
 284:	04 8c                   	b.mov      r4,r12
 286:	50 af 14                	b.mlwz     r5,0x28(r15),0x0
 289:	a4 00 00 00 00 00       	b.jal      289 <_qzero+0x105>
 28f:	50 af 04                	b.mlwz     r5,0x20(r15),0x0
 292:	a4 00 00 00 00 00       	b.jal      292 <_qzero+0x10e>
 298:	04 a3                   	b.mov      r5,r3
 29a:	04 c4                   	b.mov      r6,r4
 29c:	04 6b                   	b.mov      r3,r11
 29e:	04 8c                   	b.mov      r4,r12
 2a0:	a4 00 00 00 00 00       	b.jal      2a0 <_qzero+0x11c>
 2a6:	50 af 18                	b.mlwz     r5,0x18(r15),0x0
 2a9:	a4 00 00 00 00 00       	b.jal      2a9 <_qzero+0x125>
 2af:	04 a3                   	b.mov      r5,r3
 2b1:	04 c4                   	b.mov      r6,r4
 2b3:	04 6b                   	b.mov      r3,r11
 2b5:	04 8c                   	b.mov      r4,r12
 2b7:	a4 00 00 00 00 00       	b.jal      2b7 <_qzero+0x133>
 2bd:	50 af 08                	b.mlwz     r5,0x10(r15),0x0
 2c0:	a4 00 00 00 00 00       	b.jal      2c0 <_qzero+0x13c>
 2c6:	04 a3                   	b.mov      r5,r3
 2c8:	04 c4                   	b.mov      r6,r4
 2ca:	04 6b                   	b.mov      r3,r11
 2cc:	04 8c                   	b.mov      r4,r12
 2ce:	a4 00 00 00 00 00       	b.jal      2ce <_qzero+0x14a>
 2d4:	50 af 10                	b.mlwz     r5,0x8(r15),0x0
 2d7:	a4 00 00 00 00 00       	b.jal      2d7 <_qzero+0x153>
 2dd:	04 a3                   	b.mov      r5,r3
 2df:	04 c4                   	b.mov      r6,r4
 2e1:	04 6b                   	b.mov      r3,r11
 2e3:	04 8c                   	b.mov      r4,r12
 2e5:	a4 00 00 00 00 00       	b.jal      2e5 <_qzero+0x161>
 2eb:	50 af 00                	b.mlwz     r5,0x0(r15),0x0
 2ee:	a4 00 00 00 00 00       	b.jal      2ee <_qzero+0x16a>
 2f4:	04 a3                   	b.mov      r5,r3
 2f6:	04 c4                   	b.mov      r6,r4
 2f8:	04 6b                   	b.mov      r3,r11
 2fa:	04 8c                   	b.mov      r4,r12
 2fc:	a4 00 00 00 00 00       	b.jal      2fc <_qzero+0x178>
 302:	98 a0 00 00 0f fc       	b.ori      r5,r0,0x3ff00000
 308:	00 c0                   	b.movi     r6,0x0
 30a:	a4 00 00 00 00 00       	b.jal      30a <_qzero+0x186>
 310:	04 a3                   	b.mov      r5,r3
 312:	04 c4                   	b.mov      r6,r4
 314:	04 6d                   	b.mov      r3,r13
 316:	04 8e                   	b.mov      r4,r14
 318:	a4 00 00 00 00 00       	b.jal      318 <_qzero+0x194>
 31e:	98 a0 00 00 03 fc       	b.ori      r5,r0,0x3fc00000
 324:	00 c0                   	b.movi     r6,0x0
 326:	a4 00 00 00 00 00       	b.jal      326 <_qzero+0x1a2>
 32c:	30 ea 3b                	b.addi     r7,r10,0xffffffdc
 32f:	50 a7 00                	b.mlwz     r5,0x0(r7),0x0
 332:	a4 00 00 00 00 00       	b.jal      332 <_qzero+0x1ae>
 338:	47 be 40                	b.reti     0x7,0x2

0000033b <___ieee754_j0>:
 33b:	47 ae 70                	b.entri    0x7,0xe
 33e:	31 41 2a                	b.addi     r10,r1,0x54
 341:	04 a3                   	b.mov      r5,r3
 343:	04 c4                   	b.mov      r6,r4
 345:	95 e3 ff ff ff fe       	b.andi     r15,r3,0x7fffffff
 34b:	98 e0 ff ff f7 fe       	b.ori      r7,r0,0x7fefffff
 351:	d3 0e f1 80             	b.bges     r7,r15,369 <___ieee754_j0+0x2e>
 355:	a4 00 00 00 00 00       	b.jal      355 <___ieee754_j0+0x1a>
 35b:	04 a3                   	b.mov      r5,r3
 35d:	04 c4                   	b.mov      r6,r4
 35f:	98 60 00 00 0f fc       	b.ori      r3,r0,0x3ff00000
 365:	00 80                   	b.movi     r4,0x0
 367:	0d 82                   	b.j        46d <___ieee754_j0+0x132>
 369:	a4 00 00 00 00 00       	b.jal      369 <___ieee754_j0+0x2e>
 36f:	30 ea 3b                	b.addi     r7,r10,0xffffffdc
 372:	54 67 00                	b.msw      0x0(r7),r3,0x0
 375:	98 e0 ff ff ff fc       	b.ori      r7,r0,0x3fffffff
 37b:	d3 0e fc 68             	b.bges     r7,r15,4de <___ieee754_j0+0x1a3>
 37f:	a4 00 00 00 00 00       	b.jal      37f <___ieee754_j0+0x44>
 385:	30 ea 2b                	b.addi     r7,r10,0xffffffd4
 388:	54 67 00                	b.msw      0x0(r7),r3,0x0
 38b:	30 ea 3b                	b.addi     r7,r10,0xffffffdc
 38e:	50 67 00                	b.mlwz     r3,0x0(r7),0x0
 391:	a4 00 00 00 00 00       	b.jal      391 <___ieee754_j0+0x56>
 397:	05 a3                   	b.mov      r13,r3
 399:	05 c4                   	b.mov      r14,r4
 39b:	30 ea 2b                	b.addi     r7,r10,0xffffffd4
 39e:	50 67 00                	b.mlwz     r3,0x0(r7),0x0
 3a1:	04 ad                   	b.mov      r5,r13
 3a3:	04 ce                   	b.mov      r6,r14
 3a5:	a4 00 00 00 00 00       	b.jal      3a5 <___ieee754_j0+0x6a>
 3ab:	30 ea 2d                	b.addi     r7,r10,0xffffffb4
 3ae:	54 67 00                	b.msw      0x0(r7),r3,0x0
 3b1:	30 ea 2b                	b.addi     r7,r10,0xffffffd4
 3b4:	50 67 00                	b.mlwz     r3,0x0(r7),0x0
 3b7:	04 ad                   	b.mov      r5,r13
 3b9:	04 ce                   	b.mov      r6,r14
 3bb:	a4 00 00 00 00 00       	b.jal      3bb <___ieee754_j0+0x80>
 3c1:	30 ea 3d                	b.addi     r7,r10,0xffffffbc
 3c4:	54 67 00                	b.msw      0x0(r7),r3,0x0
 3c7:	98 e0 ff ff fb fe       	b.ori      r7,r0,0x7fdfffff
 3cd:	d3 5e 75 60             	b.bgts     r15,r7,437 <___ieee754_j0+0xfc>
 3d1:	30 ea 3b                	b.addi     r7,r10,0xffffffdc
 3d4:	50 67 00                	b.mlwz     r3,0x0(r7),0x0
 3d7:	04 a3                   	b.mov      r5,r3
 3d9:	04 c4                   	b.mov      r6,r4
 3db:	a4 00 00 00 00 00       	b.jal      3db <___ieee754_j0+0xa0>
 3e1:	a4 00 00 00 00 00       	b.jal      3e1 <___ieee754_j0+0xa6>
 3e7:	91 63 00 00 00 01       	b.addi     r11,r3,0x80000000
 3ed:	05 84                   	b.mov      r12,r4
 3ef:	30 ea 2b                	b.addi     r7,r10,0xffffffd4
 3f2:	50 67 00                	b.mlwz     r3,0x0(r7),0x0
 3f5:	04 ad                   	b.mov      r5,r13
 3f7:	04 ce                   	b.mov      r6,r14
 3f9:	a4 00 00 00 00 00       	b.jal      3f9 <___ieee754_j0+0xbe>
 3ff:	00 a0                   	b.movi     r5,0x0
 401:	00 c0                   	b.movi     r6,0x0
 403:	a4 00 00 00 00 00       	b.jal      403 <___ieee754_j0+0xc8>
 409:	42 03 18                	b.bgesi    r3,0x0,421 <___ieee754_j0+0xe6>
 40c:	04 6b                   	b.mov      r3,r11
 40e:	04 8c                   	b.mov      r4,r12
 410:	30 ea 2d                	b.addi     r7,r10,0xffffffb4
 413:	50 a7 00                	b.mlwz     r5,0x0(r7),0x0
 416:	a4 00 00 00 00 00       	b.jal      416 <___ieee754_j0+0xdb>
 41c:	30 ea 3d                	b.addi     r7,r10,0xffffffbc
 41f:	0e a0                   	b.j        434 <___ieee754_j0+0xf9>
 421:	04 6b                   	b.mov      r3,r11
 423:	04 8c                   	b.mov      r4,r12
 425:	30 ea 3d                	b.addi     r7,r10,0xffffffbc
 428:	50 a7 00                	b.mlwz     r5,0x0(r7),0x0
 42b:	a4 00 00 00 00 00       	b.jal      42b <___ieee754_j0+0xf0>
 431:	30 ea 2d                	b.addi     r7,r10,0xffffffb4
 434:	54 67 00                	b.msw      0x0(r7),r3,0x0
 437:	98 e0 00 00 00 12       	b.ori      r7,r0,0x48000000
 43d:	d3 0e f9 c0             	b.bges     r7,r15,476 <___ieee754_j0+0x13b>
 441:	30 ea 3b                	b.addi     r7,r10,0xffffffdc
 444:	50 67 00                	b.mlwz     r3,0x0(r7),0x0
 447:	a4 00 00 00 00 00       	b.jal      447 <___ieee754_j0+0x10c>
 44d:	05 63                   	b.mov      r11,r3
 44f:	05 84                   	b.mov      r12,r4
 451:	30 ea 3d                	b.addi     r7,r10,0xffffffbc
 454:	50 67 00                	b.mlwz     r3,0x0(r7),0x0
 457:	98 a0 eb b0 47 fc       	b.ori      r5,r0,0x3fe20dd7
 45d:	98 c0 b6 d9 42 0a       	b.ori      r6,r0,0x50429b6d
 463:	a4 00 00 00 00 00       	b.jal      463 <___ieee754_j0+0x128>
 469:	04 ab                   	b.mov      r5,r11
 46b:	04 cc                   	b.mov      r6,r12
 46d:	a4 00 00 00 00 00       	b.jal      46d <___ieee754_j0+0x132>
 473:	46 35 40                	b.j        71f <___ieee754_j0+0x3e4>
 476:	30 ea 3b                	b.addi     r7,r10,0xffffffdc
 479:	50 67 00                	b.mlwz     r3,0x0(r7),0x0
 47c:	48 87 7f                	b.jal      0 <_pzero>
 47f:	30 ea 3d                	b.addi     r7,r10,0xffffffbc
 482:	50 a7 00                	b.mlwz     r5,0x0(r7),0x0
 485:	a4 00 00 00 00 00       	b.jal      485 <___ieee754_j0+0x14a>
 48b:	05 63                   	b.mov      r11,r3
 48d:	05 84                   	b.mov      r12,r4
 48f:	30 ea 3b                	b.addi     r7,r10,0xffffffdc
 492:	50 67 00                	b.mlwz     r3,0x0(r7),0x0
 495:	4b dc ff                	b.jal      184 <_qzero>
 498:	30 ea 2d                	b.addi     r7,r10,0xffffffb4
 49b:	50 a7 00                	b.mlwz     r5,0x0(r7),0x0
 49e:	a4 00 00 00 00 00       	b.jal      49e <___ieee754_j0+0x163>
 4a4:	04 a3                   	b.mov      r5,r3
 4a6:	04 c4                   	b.mov      r6,r4
 4a8:	04 6b                   	b.mov      r3,r11
 4aa:	04 8c                   	b.mov      r4,r12
 4ac:	a4 00 00 00 00 00       	b.jal      4ac <___ieee754_j0+0x171>
 4b2:	98 a0 eb b0 47 fc       	b.ori      r5,r0,0x3fe20dd7
 4b8:	98 c0 b6 d9 42 0a       	b.ori      r6,r0,0x50429b6d
 4be:	a4 00 00 00 00 00       	b.jal      4be <___ieee754_j0+0x183>
 4c4:	05 63                   	b.mov      r11,r3
 4c6:	05 84                   	b.mov      r12,r4
 4c8:	30 ea 3b                	b.addi     r7,r10,0xffffffdc
 4cb:	50 67 00                	b.mlwz     r3,0x0(r7),0x0
 4ce:	a4 00 00 00 00 00       	b.jal      4ce <___ieee754_j0+0x193>
 4d4:	04 a3                   	b.mov      r5,r3
 4d6:	04 c4                   	b.mov      r6,r4
 4d8:	04 6b                   	b.mov      r3,r11
 4da:	04 8c                   	b.mov      r4,r12
 4dc:	0e 27                   	b.j        46d <___ieee754_j0+0x132>
 4de:	98 e0 ff ff f8 fc       	b.ori      r7,r0,0x3f1fffff
 4e4:	d3 5e 7a a0             	b.bgts     r15,r7,539 <___ieee754_j0+0x1fe>
 4e8:	98 a0 3c 27 ec 7e       	b.ori      r5,r0,0x7e37e43c
 4ee:	98 c0 39 ae 00 11       	b.ori      r6,r0,0x8800759c
 4f4:	a4 00 00 00 00 00       	b.jal      4f4 <___ieee754_j0+0x1b9>
 4fa:	98 a0 00 00 0f fc       	b.ori      r5,r0,0x3ff00000
 500:	00 c0                   	b.movi     r6,0x0
 502:	a4 00 00 00 00 00       	b.jal      502 <___ieee754_j0+0x1c7>
 508:	44 03 8c                	b.blesi    r3,0x0,539 <___ieee754_j0+0x1fe>
 50b:	98 60 00 00 0f fc       	b.ori      r3,r0,0x3ff00000
 511:	00 80                   	b.movi     r4,0x0
 513:	98 e0 ff ff fc 7c       	b.ori      r7,r0,0x3e3fffff
 519:	d3 0e f6 04             	b.bges     r7,r15,71f <___ieee754_j0+0x3e4>
 51d:	30 ea 3b                	b.addi     r7,r10,0xffffffdc
 520:	50 67 00                	b.mlwz     r3,0x0(r7),0x0
 523:	98 a0 00 00 0b fd       	b.ori      r5,r0,0xbfd00000
 529:	00 c0                   	b.movi     r6,0x0
 52b:	a4 00 00 00 00 00       	b.jal      52b <___ieee754_j0+0x1f0>
 531:	30 ea 3b                	b.addi     r7,r10,0xffffffdc
 534:	50 a7 00                	b.mlwz     r5,0x0(r7),0x0
 537:	0c 6a                   	b.j        68f <___ieee754_j0+0x354>
 539:	30 ea 3b                	b.addi     r7,r10,0xffffffdc
 53c:	50 67 00                	b.mlwz     r3,0x0(r7),0x0
 53f:	04 a3                   	b.mov      r5,r3
 541:	04 c4                   	b.mov      r6,r4
 543:	a4 00 00 00 00 00       	b.jal      543 <___ieee754_j0+0x208>
 549:	30 ea 33                	b.addi     r7,r10,0xffffffcc
 54c:	54 67 00                	b.msw      0x0(r7),r3,0x0
 54f:	98 a0 e7 ab cc 7d       	b.ori      r5,r0,0xbe33d5e7
 555:	98 c0 73 fc 6b ce       	b.ori      r6,r0,0x73d63fce
 55b:	a4 00 00 00 00 00       	b.jal      55b <___ieee754_j0+0x220>
 561:	98 a0 8b 8d 7d 7c       	b.ori      r5,r0,0x3ebeb1d1
 567:	98 c0 98 9c 0a 30       	b.ori      r6,r0,0xc503919
 56d:	a4 00 00 00 00 00       	b.jal      56d <___ieee754_j0+0x232>
 573:	04 a3                   	b.mov      r5,r3
 575:	04 c4                   	b.mov      r6,r4
 577:	30 ea 33                	b.addi     r7,r10,0xffffffcc
 57a:	50 67 00                	b.mlwz     r3,0x0(r7),0x0
 57d:	a4 00 00 00 00 00       	b.jal      57d <___ieee754_j0+0x242>
 583:	98 a0 a5 67 14 fc       	b.ori      r5,r0,0x3f28e6a5
 589:	98 c0 97 63 58 6d       	b.ori      r6,r0,0xb61ac6e9
 58f:	a4 00 00 00 00 00       	b.jal      58f <___ieee754_j0+0x254>
 595:	04 a3                   	b.mov      r5,r3
 597:	04 c4                   	b.mov      r6,r4
 599:	30 ea 33                	b.addi     r7,r10,0xffffffcc
 59c:	50 67 00                	b.mlwz     r3,0x0(r7),0x0
 59f:	a4 00 00 00 00 00       	b.jal      59f <___ieee754_j0+0x264>
 5a5:	98 a0 ff ff f1 fc       	b.ori      r5,r0,0x3f8fffff
 5ab:	00 cb                   	b.movi     r6,0xfffffffd
 5ad:	a4 00 00 00 00 00       	b.jal      5ad <___ieee754_j0+0x272>
 5b3:	04 a3                   	b.mov      r5,r3
 5b5:	04 c4                   	b.mov      r6,r4
 5b7:	30 ea 33                	b.addi     r7,r10,0xffffffcc
 5ba:	50 67 00                	b.mlwz     r3,0x0(r7),0x0
 5bd:	a4 00 00 00 00 00       	b.jal      5bd <___ieee754_j0+0x282>
 5c3:	30 ea 23                	b.addi     r7,r10,0xffffffc4
 5c6:	54 67 00                	b.msw      0x0(r7),r3,0x0
 5c9:	30 ea 33                	b.addi     r7,r10,0xffffffcc
 5cc:	50 67 00                	b.mlwz     r3,0x0(r7),0x0
 5cf:	98 a0 3d 10 28 7c       	b.ori      r5,r0,0x3e1408bc
 5d5:	98 c0 f1 ba 2e 2f       	b.ori      r6,r0,0xf4745d8f
 5db:	a4 00 00 00 00 00       	b.jal      5db <___ieee754_j0+0x2a0>
 5e1:	98 a0 2a dc 85 7c       	b.ori      r5,r0,0x3ea13b54
 5e7:	98 c0 95 ab 21 73       	b.ori      r6,r0,0xce84d5a9
 5ed:	a4 00 00 00 00 00       	b.jal      5ed <___ieee754_j0+0x2b2>
 5f3:	04 a3                   	b.mov      r5,r3
 5f5:	04 c4                   	b.mov      r6,r4
 5f7:	30 ea 33                	b.addi     r7,r10,0xffffffcc
 5fa:	50 67 00                	b.mlwz     r3,0x0(r7),0x0
 5fd:	a4 00 00 00 00 00       	b.jal      5fd <___ieee754_j0+0x2c2>
 603:	98 a0 4b 65 78 fc       	b.ori      r5,r0,0x3f1ea6d2
 609:	98 c0 2f db ea bb       	b.ori      r6,r0,0xdd57dbf4
 60f:	a4 00 00 00 00 00       	b.jal      60f <___ieee754_j0+0x2d4>
 615:	04 a3                   	b.mov      r5,r3
 617:	04 c4                   	b.mov      r6,r4
 619:	30 ea 33                	b.addi     r7,r10,0xffffffcc
 61c:	50 67 00                	b.mlwz     r3,0x0(r7),0x0
 61f:	a4 00 00 00 00 00       	b.jal      61f <___ieee754_j0+0x2e4>
 625:	98 a0 17 3f f1 fc       	b.ori      r5,r0,0x3f8ffce8
 62b:	98 c0 25 43 13 41       	b.ori      r6,r0,0x82c8c2a4
 631:	a4 00 00 00 00 00       	b.jal      631 <___ieee754_j0+0x2f6>
 637:	04 a3                   	b.mov      r5,r3
 639:	04 c4                   	b.mov      r6,r4
 63b:	30 ea 33                	b.addi     r7,r10,0xffffffcc
 63e:	50 67 00                	b.mlwz     r3,0x0(r7),0x0
 641:	a4 00 00 00 00 00       	b.jal      641 <___ieee754_j0+0x306>
 647:	98 a0 00 00 0f fc       	b.ori      r5,r0,0x3ff00000
 64d:	00 c0                   	b.movi     r6,0x0
 64f:	a4 00 00 00 00 00       	b.jal      64f <___ieee754_j0+0x314>
 655:	30 ea 35                	b.addi     r7,r10,0xffffffac
 658:	54 67 00                	b.msw      0x0(r7),r3,0x0
 65b:	98 e0 ff ff f7 fc       	b.ori      r7,r0,0x3fefffff
 661:	d3 5e 77 c0             	b.bgts     r15,r7,69f <___ieee754_j0+0x364>
 665:	30 ea 23                	b.addi     r7,r10,0xffffffc4
 668:	50 67 00                	b.mlwz     r3,0x0(r7),0x0
 66b:	30 ea 35                	b.addi     r7,r10,0xffffffac
 66e:	50 a7 00                	b.mlwz     r5,0x0(r7),0x0
 671:	a4 00 00 00 00 00       	b.jal      671 <___ieee754_j0+0x336>
 677:	98 a0 00 00 0b fc       	b.ori      r5,r0,0x3fd00000
 67d:	00 c0                   	b.movi     r6,0x0
 67f:	a4 00 00 00 00 00       	b.jal      67f <___ieee754_j0+0x344>
 685:	04 a3                   	b.mov      r5,r3
 687:	04 c4                   	b.mov      r6,r4
 689:	30 ea 33                	b.addi     r7,r10,0xffffffcc
 68c:	50 67 00                	b.mlwz     r3,0x0(r7),0x0
 68f:	a4 00 00 00 00 00       	b.jal      68f <___ieee754_j0+0x354>
 695:	98 a0 00 00 0f fc       	b.ori      r5,r0,0x3ff00000
 69b:	00 c0                   	b.movi     r6,0x0
 69d:	0c f8                   	b.j        719 <___ieee754_j0+0x3de>
 69f:	30 ea 3b                	b.addi     r7,r10,0xffffffdc
 6a2:	50 67 00                	b.mlwz     r3,0x0(r7),0x0
 6a5:	98 a0 00 00 07 fc       	b.ori      r5,r0,0x3fe00000
 6ab:	00 c0                   	b.movi     r6,0x0
 6ad:	a4 00 00 00 00 00       	b.jal      6ad <___ieee754_j0+0x372>
 6b3:	05 63                   	b.mov      r11,r3
 6b5:	05 84                   	b.mov      r12,r4
 6b7:	04 6b                   	b.mov      r3,r11
 6b9:	98 a0 00 00 0f fc       	b.ori      r5,r0,0x3ff00000
 6bf:	00 c0                   	b.movi     r6,0x0
 6c1:	a4 00 00 00 00 00       	b.jal      6c1 <___ieee754_j0+0x386>
 6c7:	05 a3                   	b.mov      r13,r3
 6c9:	05 c4                   	b.mov      r14,r4
 6cb:	98 60 00 00 0f fc       	b.ori      r3,r0,0x3ff00000
 6d1:	00 80                   	b.movi     r4,0x0
 6d3:	04 ab                   	b.mov      r5,r11
 6d5:	04 cc                   	b.mov      r6,r12
 6d7:	a4 00 00 00 00 00       	b.jal      6d7 <___ieee754_j0+0x39c>
 6dd:	04 a3                   	b.mov      r5,r3
 6df:	04 c4                   	b.mov      r6,r4
 6e1:	04 6d                   	b.mov      r3,r13
 6e3:	04 8e                   	b.mov      r4,r14
 6e5:	a4 00 00 00 00 00       	b.jal      6e5 <___ieee754_j0+0x3aa>
 6eb:	05 63                   	b.mov      r11,r3
 6ed:	05 84                   	b.mov      r12,r4
 6ef:	30 ea 23                	b.addi     r7,r10,0xffffffc4
 6f2:	50 67 00                	b.mlwz     r3,0x0(r7),0x0
 6f5:	30 ea 35                	b.addi     r7,r10,0xffffffac
 6f8:	50 a7 00                	b.mlwz     r5,0x0(r7),0x0
 6fb:	a4 00 00 00 00 00       	b.jal      6fb <___ieee754_j0+0x3c0>
 701:	04 a3                   	b.mov      r5,r3
 703:	04 c4                   	b.mov      r6,r4
 705:	30 ea 33                	b.addi     r7,r10,0xffffffcc
 708:	50 67 00                	b.mlwz     r3,0x0(r7),0x0
 70b:	a4 00 00 00 00 00       	b.jal      70b <___ieee754_j0+0x3d0>
 711:	04 a3                   	b.mov      r5,r3
 713:	04 c4                   	b.mov      r6,r4
 715:	04 6b                   	b.mov      r3,r11
 717:	04 8c                   	b.mov      r4,r12
 719:	a4 00 00 00 00 00       	b.jal      719 <___ieee754_j0+0x3de>
 71f:	47 be 70                	b.reti     0x7,0xe

00000722 <___ieee754_y0>:
 722:	47 ae 30                	b.entri    0x7,0xc
 725:	31 41 32                	b.addi     r10,r1,0x4c
 728:	05 a3                   	b.mov      r13,r3
 72a:	05 c4                   	b.mov      r14,r4
 72c:	95 e3 ff ff ff fe       	b.andi     r15,r3,0x7fffffff
 732:	98 a0 ff ff f7 fe       	b.ori      r5,r0,0x7fefffff
 738:	d3 0a f5 40             	b.bges     r5,r15,762 <___ieee754_y0+0x40>
 73c:	04 a3                   	b.mov      r5,r3
 73e:	04 c4                   	b.mov      r6,r4
 740:	a4 00 00 00 00 00       	b.jal      740 <___ieee754_y0+0x1e>
 746:	04 a3                   	b.mov      r5,r3
 748:	04 c4                   	b.mov      r6,r4
 74a:	04 6d                   	b.mov      r3,r13
 74c:	04 8e                   	b.mov      r4,r14
 74e:	a4 00 00 00 00 00       	b.jal      74e <___ieee754_y0+0x2c>
 754:	04 a3                   	b.mov      r5,r3
 756:	04 c4                   	b.mov      r6,r4
 758:	98 60 00 00 0f fc       	b.ori      r3,r0,0x3ff00000
 75e:	00 80                   	b.movi     r4,0x0
 760:	0c a0                   	b.j        774 <___ieee754_y0+0x52>
 762:	60 ef 21                	b.or       r7,r15,r4
 765:	41 07 18                	b.bnei     r7,0x0,77d <___ieee754_y0+0x5b>
 768:	98 60 00 00 0f fd       	b.ori      r3,r0,0xbff00000
 76e:	00 80                   	b.movi     r4,0x0
 770:	00 a0                   	b.movi     r5,0x0
 772:	00 c0                   	b.movi     r6,0x0
 774:	a4 00 00 00 00 00       	b.jal      774 <___ieee754_y0+0x52>
 77a:	46 c6 c0                	b.j        add <___ieee754_y0+0x3bb>
 77d:	42 03 b0                	b.bgesi    r3,0x0,78a <___ieee754_y0+0x68>
 780:	00 60                   	b.movi     r3,0x0
 782:	00 80                   	b.movi     r4,0x0
 784:	04 a3                   	b.mov      r5,r3
 786:	04 c4                   	b.mov      r6,r4
 788:	0c df                   	b.j        774 <___ieee754_y0+0x52>
 78a:	98 e0 ff ff ff fc       	b.ori      r7,r0,0x3fffffff
 790:	d3 0e fa a8             	b.bges     r7,r15,8e5 <___ieee754_y0+0x1c3>
 794:	a4 00 00 00 00 00       	b.jal      794 <___ieee754_y0+0x72>
 79a:	30 aa 23                	b.addi     r5,r10,0xffffffc4
 79d:	54 65 00                	b.msw      0x0(r5),r3,0x0
 7a0:	04 6d                   	b.mov      r3,r13
 7a2:	04 8e                   	b.mov      r4,r14
 7a4:	a4 00 00 00 00 00       	b.jal      7a4 <___ieee754_y0+0x82>
 7aa:	30 ea 33                	b.addi     r7,r10,0xffffffcc
 7ad:	54 67 00                	b.msw      0x0(r7),r3,0x0
 7b0:	30 aa 23                	b.addi     r5,r10,0xffffffc4
 7b3:	50 65 00                	b.mlwz     r3,0x0(r5),0x0
 7b6:	50 a7 00                	b.mlwz     r5,0x0(r7),0x0
 7b9:	a4 00 00 00 00 00       	b.jal      7b9 <___ieee754_y0+0x97>
 7bf:	30 aa 2b                	b.addi     r5,r10,0xffffffd4
 7c2:	54 65 00                	b.msw      0x0(r5),r3,0x0
 7c5:	30 ea 23                	b.addi     r7,r10,0xffffffc4
 7c8:	50 67 00                	b.mlwz     r3,0x0(r7),0x0
 7cb:	30 ea 33                	b.addi     r7,r10,0xffffffcc
 7ce:	50 a7 00                	b.mlwz     r5,0x0(r7),0x0
 7d1:	a4 00 00 00 00 00       	b.jal      7d1 <___ieee754_y0+0xaf>
 7d7:	30 aa 3b                	b.addi     r5,r10,0xffffffdc
 7da:	54 65 00                	b.msw      0x0(r5),r3,0x0
 7dd:	98 e0 ff ff fb fe       	b.ori      r7,r0,0x7fdfffff
 7e3:	d3 5e 75 60             	b.bgts     r15,r7,84d <___ieee754_y0+0x12b>
 7e7:	04 6d                   	b.mov      r3,r13
 7e9:	04 8e                   	b.mov      r4,r14
 7eb:	04 ad                   	b.mov      r5,r13
 7ed:	04 ce                   	b.mov      r6,r14
 7ef:	a4 00 00 00 00 00       	b.jal      7ef <___ieee754_y0+0xcd>
 7f5:	a4 00 00 00 00 00       	b.jal      7f5 <___ieee754_y0+0xd3>
 7fb:	91 63 00 00 00 01       	b.addi     r11,r3,0x80000000
 801:	05 84                   	b.mov      r12,r4
 803:	30 aa 23                	b.addi     r5,r10,0xffffffc4
 806:	50 65 00                	b.mlwz     r3,0x0(r5),0x0
 809:	30 ea 33                	b.addi     r7,r10,0xffffffcc
 80c:	50 a7 00                	b.mlwz     r5,0x0(r7),0x0
 80f:	a4 00 00 00 00 00       	b.jal      80f <___ieee754_y0+0xed>
 815:	00 a0                   	b.movi     r5,0x0
 817:	00 c0                   	b.movi     r6,0x0
 819:	a4 00 00 00 00 00       	b.jal      819 <___ieee754_y0+0xf7>
 81f:	42 03 18                	b.bgesi    r3,0x0,837 <___ieee754_y0+0x115>
 822:	04 6b                   	b.mov      r3,r11
 824:	04 8c                   	b.mov      r4,r12
 826:	30 ea 2b                	b.addi     r7,r10,0xffffffd4
 829:	50 a7 00                	b.mlwz     r5,0x0(r7),0x0
 82c:	a4 00 00 00 00 00       	b.jal      82c <___ieee754_y0+0x10a>
 832:	30 aa 3b                	b.addi     r5,r10,0xffffffdc
 835:	0e a0                   	b.j        84a <___ieee754_y0+0x128>
 837:	04 6b                   	b.mov      r3,r11
 839:	04 8c                   	b.mov      r4,r12
 83b:	30 ea 3b                	b.addi     r7,r10,0xffffffdc
 83e:	50 a7 00                	b.mlwz     r5,0x0(r7),0x0
 841:	a4 00 00 00 00 00       	b.jal      841 <___ieee754_y0+0x11f>
 847:	30 aa 2b                	b.addi     r5,r10,0xffffffd4
 84a:	54 65 00                	b.msw      0x0(r5),r3,0x0
 84d:	98 e0 00 00 00 12       	b.ori      r7,r0,0x48000000
 853:	d3 0e f0 c0             	b.bges     r7,r15,883 <___ieee754_y0+0x161>
 857:	04 6d                   	b.mov      r3,r13
 859:	04 8e                   	b.mov      r4,r14
 85b:	a4 00 00 00 00 00       	b.jal      85b <___ieee754_y0+0x139>
 861:	05 63                   	b.mov      r11,r3
 863:	05 84                   	b.mov      r12,r4
 865:	30 aa 2b                	b.addi     r5,r10,0xffffffd4
 868:	50 65 00                	b.mlwz     r3,0x0(r5),0x0
 86b:	98 a0 eb b0 47 fc       	b.ori      r5,r0,0x3fe20dd7
 871:	98 c0 b6 d9 42 0a       	b.ori      r6,r0,0x50429b6d
 877:	a4 00 00 00 00 00       	b.jal      877 <___ieee754_y0+0x155>
 87d:	04 ab                   	b.mov      r5,r11
 87f:	04 cc                   	b.mov      r6,r12
 881:	0f 3d                   	b.j        774 <___ieee754_y0+0x52>
 883:	04 6d                   	b.mov      r3,r13
 885:	04 8e                   	b.mov      r4,r14
 887:	4a 7b bf                	b.jal      0 <_pzero>
 88a:	30 ea 2b                	b.addi     r7,r10,0xffffffd4
 88d:	50 a7 00                	b.mlwz     r5,0x0(r7),0x0
 890:	a4 00 00 00 00 00       	b.jal      890 <___ieee754_y0+0x16e>
 896:	05 63                   	b.mov      r11,r3
 898:	05 84                   	b.mov      r12,r4
 89a:	04 6d                   	b.mov      r3,r13
 89c:	04 8e                   	b.mov      r4,r14
 89e:	49 9c 7f                	b.jal      184 <_qzero>
 8a1:	30 ea 3b                	b.addi     r7,r10,0xffffffdc
 8a4:	50 a7 00                	b.mlwz     r5,0x0(r7),0x0
 8a7:	a4 00 00 00 00 00       	b.jal      8a7 <___ieee754_y0+0x185>
 8ad:	04 a3                   	b.mov      r5,r3
 8af:	04 c4                   	b.mov      r6,r4
 8b1:	04 6b                   	b.mov      r3,r11
 8b3:	04 8c                   	b.mov      r4,r12
 8b5:	a4 00 00 00 00 00       	b.jal      8b5 <___ieee754_y0+0x193>
 8bb:	98 a0 eb b0 47 fc       	b.ori      r5,r0,0x3fe20dd7
 8c1:	98 c0 b6 d9 42 0a       	b.ori      r6,r0,0x50429b6d
 8c7:	a4 00 00 00 00 00       	b.jal      8c7 <___ieee754_y0+0x1a5>
 8cd:	05 63                   	b.mov      r11,r3
 8cf:	05 84                   	b.mov      r12,r4
 8d1:	04 6d                   	b.mov      r3,r13
 8d3:	04 8e                   	b.mov      r4,r14
 8d5:	a4 00 00 00 00 00       	b.jal      8d5 <___ieee754_y0+0x1b3>
 8db:	04 a3                   	b.mov      r5,r3
 8dd:	04 c4                   	b.mov      r6,r4
 8df:	04 6b                   	b.mov      r3,r11
 8e1:	04 8c                   	b.mov      r4,r12
 8e3:	0e 25                   	b.j        774 <___ieee754_y0+0x52>
 8e5:	98 a0 00 00 02 7c       	b.ori      r5,r0,0x3e400000
 8eb:	d3 5e 50 c0             	b.bgts     r15,r5,91b <___ieee754_y0+0x1f9>
 8ef:	a4 00 00 00 00 00       	b.jal      8ef <___ieee754_y0+0x1cd>
 8f5:	98 a0 0c fa 27 fc       	b.ori      r5,r0,0x3fe45f30
 8fb:	98 c0 c1 13 93 b6       	b.ori      r6,r0,0x6dc9c883
 901:	a4 00 00 00 00 00       	b.jal      901 <___ieee754_y0+0x1df>
 907:	98 a0 6b 27 4d fc       	b.ori      r5,r0,0x3fb2e4d6
 90d:	98 c0 f8 0b d3 99       	b.ori      r6,r0,0x99cbd01f
 913:	a4 00 00 00 00 00       	b.jal      913 <___ieee754_y0+0x1f1>
 919:	0c 8e                   	b.j        add <___ieee754_y0+0x3bb>
 91b:	04 a3                   	b.mov      r5,r3
 91d:	04 c4                   	b.mov      r6,r4
 91f:	a4 00 00 00 00 00       	b.jal      91f <___ieee754_y0+0x1fd>
 925:	05 63                   	b.mov      r11,r3
 927:	05 84                   	b.mov      r12,r4
 929:	04 6d                   	b.mov      r3,r13
 92b:	04 8e                   	b.mov      r4,r14
 92d:	a4 00 70 5f ff ff       	b.jal      33b <___ieee754_j0>
 933:	30 ea 2d                	b.addi     r7,r10,0xffffffb4
 936:	54 67 00                	b.msw      0x0(r7),r3,0x0
 939:	04 6d                   	b.mov      r3,r13
 93b:	04 8e                   	b.mov      r4,r14
 93d:	a4 00 00 00 00 00       	b.jal      93d <___ieee754_y0+0x21b>
 943:	30 aa 3d                	b.addi     r5,r10,0xffffffbc
 946:	54 65 00                	b.msw      0x0(r5),r3,0x0
 949:	04 6b                   	b.mov      r3,r11
 94b:	04 8c                   	b.mov      r4,r12
 94d:	98 a0 bc 27 a3 bd       	b.ori      r5,r0,0xbdc5e43d
 953:	98 c0 13 cd fc 96       	b.ori      r6,r0,0x693fb3c8
 959:	a4 00 00 00 00 00       	b.jal      959 <___ieee754_y0+0x237>
 95f:	98 a0 ea 00 aa 7c       	b.ori      r5,r0,0x3e550057
 965:	98 c0 2b d5 72 dc       	b.ori      r6,r0,0x3b4eabd4
 96b:	a4 00 00 00 00 00       	b.jal      96b <___ieee754_y0+0x249>
 971:	04 a3                   	b.mov      r5,r3
 973:	04 c4                   	b.mov      r6,r4
 975:	04 6b                   	b.mov      r3,r11
 977:	04 8c                   	b.mov      r4,r12
 979:	a4 00 00 00 00 00       	b.jal      979 <___ieee754_y0+0x257>
 97f:	98 a0 e5 7f f3 7c       	b.ori      r5,r0,0x3ecffea7
 985:	98 c0 b5 3a 4b ce       	b.ori      r6,r0,0x73d25cad
 98b:	a4 00 00 00 00 00       	b.jal      98b <___ieee754_y0+0x269>
 991:	04 a3                   	b.mov      r5,r3
 993:	04 c4                   	b.mov      r6,r4
 995:	04 6b                   	b.mov      r3,r11
 997:	04 8c                   	b.mov      r4,r12
 999:	a4 00 00 00 00 00       	b.jal      999 <___ieee754_y0+0x277>
 99f:	98 a0 b2 a3 6c fc       	b.ori      r5,r0,0x3f36c54d
 9a5:	98 c0 d6 d9 4d 04       	b.ori      r6,r0,0x20b29b6b
 9ab:	a4 00 00 00 00 00       	b.jal      9ab <___ieee754_y0+0x289>
 9b1:	04 a3                   	b.mov      r5,r3
 9b3:	04 c4                   	b.mov      r6,r4
 9b5:	04 6b                   	b.mov      r3,r11
 9b7:	04 8c                   	b.mov      r4,r12
 9b9:	a4 00 00 00 00 00       	b.jal      9b9 <___ieee754_y0+0x297>
 9bf:	98 a0 17 32 31 fc       	b.ori      r5,r0,0x3f8c4ce8
 9c5:	98 c0 e9 5f 36 8d       	b.ori      r6,r0,0xb16cfa97
 9cb:	a4 00 00 00 00 00       	b.jal      9cb <___ieee754_y0+0x2a9>
 9d1:	04 a3                   	b.mov      r5,r3
 9d3:	04 c4                   	b.mov      r6,r4
 9d5:	04 6b                   	b.mov      r3,r11
 9d7:	04 8c                   	b.mov      r4,r12
 9d9:	a4 00 00 00 00 00       	b.jal      9d9 <___ieee754_y0+0x2b7>
 9df:	98 a0 80 b9 63 fc       	b.ori      r5,r0,0x3fc69d01
 9e5:	98 c0 3f c7 97 b9       	b.ori      r6,r0,0x9de9e3fc
 9eb:	a4 00 00 00 00 00       	b.jal      9eb <___ieee754_y0+0x2c9>
 9f1:	04 a3                   	b.mov      r5,r3
 9f3:	04 c4                   	b.mov      r6,r4
 9f5:	04 6b                   	b.mov      r3,r11
 9f7:	04 8c                   	b.mov      r4,r12
 9f9:	a4 00 00 00 00 00       	b.jal      9f9 <___ieee754_y0+0x2d7>
 9ff:	98 a0 6b 27 4d fc       	b.ori      r5,r0,0x3fb2e4d6
 a05:	98 c0 f8 0b d3 99       	b.ori      r6,r0,0x99cbd01f
 a0b:	a4 00 00 00 00 00       	b.jal      a0b <___ieee754_y0+0x2e9>
 a11:	05 a3                   	b.mov      r13,r3
 a13:	05 c4                   	b.mov      r14,r4
 a15:	04 6b                   	b.mov      r3,r11
 a17:	04 8c                   	b.mov      r4,r12
 a19:	98 a0 18 0a 7f bc       	b.ori      r5,r0,0x3dfe5018
 a1f:	98 c0 f7 9b 6b dc       	b.ori      r6,r0,0x3bd6d9ef
 a25:	a4 00 00 00 00 00       	b.jal      a25 <___ieee754_y0+0x303>
 a2b:	98 a0 b4 26 89 7c       	b.ori      r5,r0,0x3e91642d
 a31:	98 c0 bf 40 4f fe       	b.ori      r6,r0,0x7ff202fd
 a37:	a4 00 00 00 00 00       	b.jal      a37 <___ieee754_y0+0x315>
 a3d:	04 a3                   	b.mov      r5,r3
 a3f:	04 c4                   	b.mov      r6,r4
 a41:	04 6b                   	b.mov      r3,r11
 a43:	04 8c                   	b.mov      r4,r12
 a45:	a4 00 00 00 00 00       	b.jal      a45 <___ieee754_y0+0x323>
 a4b:	98 a0 dd 37 c8 fc       	b.ori      r5,r0,0x3f13ecbb
 a51:	98 c0 83 63 1e af       	b.ori      r6,r0,0xf578c6c1
 a57:	a4 00 00 00 00 00       	b.jal      a57 <___ieee754_y0+0x335>
 a5d:	04 a3                   	b.mov      r5,r3
 a5f:	04 c4                   	b.mov      r6,r4
 a61:	04 6b                   	b.mov      r3,r11
 a63:	04 8c                   	b.mov      r4,r12
 a65:	a4 00 00 00 00 00       	b.jal      a65 <___ieee754_y0+0x343>
 a6b:	98 a0 0e 48 51 fc       	b.ori      r5,r0,0x3f8a1270
 a71:	98 c0 58 e3 93 89       	b.ori      r6,r0,0x91c9c71a
 a77:	a4 00 00 00 00 00       	b.jal      a77 <___ieee754_y0+0x355>
 a7d:	04 a3                   	b.mov      r5,r3
 a7f:	04 c4                   	b.mov      r6,r4
 a81:	04 6b                   	b.mov      r3,r11
 a83:	04 8c                   	b.mov      r4,r12
 a85:	a4 00 00 00 00 00       	b.jal      a85 <___ieee754_y0+0x363>
 a8b:	98 a0 00 00 0f fc       	b.ori      r5,r0,0x3ff00000
 a91:	00 c0                   	b.movi     r6,0x0
 a93:	a4 00 00 00 00 00       	b.jal      a93 <___ieee754_y0+0x371>
 a99:	04 a3                   	b.mov      r5,r3
 a9b:	04 c4                   	b.mov      r6,r4
 a9d:	04 6d                   	b.mov      r3,r13
 a9f:	04 8e                   	b.mov      r4,r14
 aa1:	a4 00 00 00 00 00       	b.jal      aa1 <___ieee754_y0+0x37f>
 aa7:	05 63                   	b.mov      r11,r3
 aa9:	05 84                   	b.mov      r12,r4
 aab:	30 ea 2d                	b.addi     r7,r10,0xffffffb4
 aae:	50 67 00                	b.mlwz     r3,0x0(r7),0x0
 ab1:	30 ea 3d                	b.addi     r7,r10,0xffffffbc
 ab4:	50 a7 00                	b.mlwz     r5,0x0(r7),0x0
 ab7:	a4 00 00 00 00 00       	b.jal      ab7 <___ieee754_y0+0x395>
 abd:	98 a0 0c fa 27 fc       	b.ori      r5,r0,0x3fe45f30
 ac3:	98 c0 c1 13 93 b6       	b.ori      r6,r0,0x6dc9c883
 ac9:	a4 00 00 00 00 00       	b.jal      ac9 <___ieee754_y0+0x3a7>
 acf:	04 a3                   	b.mov      r5,r3
 ad1:	04 c4                   	b.mov      r6,r4
 ad3:	04 6b                   	b.mov      r3,r11
 ad5:	04 8c                   	b.mov      r4,r12
 ad7:	a4 00 00 00 00 00       	b.jal      ad7 <___ieee754_y0+0x3b5>
 add:	47 be 30                	b.reti     0x7,0xc

e_j1.o:     file format elf32-ba

Disassembly of section .text:

00000000 <_pone>:
   0:	47 ae 00                	b.entri    0x7,0x0
   3:	31 41 38                	b.addi     r10,r1,0x1c
   6:	94 e3 ff ff ff fe       	b.andi     r7,r3,0x7fffffff
   c:	99 a0 00 00 00 00       	b.ori      r13,r0,0x0
  12:	99 e0 0c 00 00 00       	b.ori      r15,r0,0x30
  18:	98 c0 ff ff f8 02       	b.ori      r6,r0,0x401fffff
  1e:	d3 4e 63 c0             	b.bgts     r7,r6,5a <_pone+0x5a>
  22:	99 a0 1a 00 00 00       	b.ori      r13,r0,0x58
  28:	99 e0 11 00 00 00       	b.ori      r15,r0,0x88
  2e:	98 c0 51 74 48 02       	b.ori      r6,r0,0x40122e8a
  34:	d3 4e 66 40             	b.bgts     r7,r6,5a <_pone+0x5a>
  38:	99 a0 0d 00 00 00       	b.ori      r13,r0,0xb0
  3e:	99 e0 07 00 00 00       	b.ori      r15,r0,0xe0
  44:	98 c0 36 db 60 02       	b.ori      r6,r0,0x4006db6c
  4a:	d3 4e 60 80             	b.bgts     r7,r6,5a <_pone+0x5a>
  4e:	99 a0 10 80 00 00       	b.ori      r13,r0,0x108
  54:	99 e0 1c 80 00 00       	b.ori      r15,r0,0x138
  5a:	04 a3                   	b.mov      r5,r3
  5c:	04 c4                   	b.mov      r6,r4
  5e:	a4 00 00 00 00 00       	b.jal      5e <_pone+0x5e>
  64:	04 a3                   	b.mov      r5,r3
  66:	04 c4                   	b.mov      r6,r4
  68:	98 60 00 00 0f fc       	b.ori      r3,r0,0x3ff00000
  6e:	00 80                   	b.movi     r4,0x0
  70:	a4 00 00 00 00 00       	b.jal      70 <_pone+0x70>
  76:	05 63                   	b.mov      r11,r3
  78:	05 84                   	b.mov      r12,r4
  7a:	04 6b                   	b.mov      r3,r11
  7c:	50 ad 14                	b.mlwz     r5,0x28(r13),0x0
  7f:	a4 00 00 00 00 00       	b.jal      7f <_pone+0x7f>
  85:	50 ad 04                	b.mlwz     r5,0x20(r13),0x0
  88:	a4 00 00 00 00 00       	b.jal      88 <_pone+0x88>
  8e:	04 a3                   	b.mov      r5,r3
  90:	04 c4                   	b.mov      r6,r4
  92:	04 6b                   	b.mov      r3,r11
  94:	04 8c                   	b.mov      r4,r12
  96:	a4 00 00 00 00 00       	b.jal      96 <_pone+0x96>
  9c:	50 ad 18                	b.mlwz     r5,0x18(r13),0x0
  9f:	a4 00 00 00 00 00       	b.jal      9f <_pone+0x9f>
  a5:	04 a3                   	b.mov      r5,r3
  a7:	04 c4                   	b.mov      r6,r4
  a9:	04 6b                   	b.mov      r3,r11
  ab:	04 8c                   	b.mov      r4,r12
  ad:	a4 00 00 00 00 00       	b.jal      ad <_pone+0xad>
  b3:	50 ad 08                	b.mlwz     r5,0x10(r13),0x0
  b6:	a4 00 00 00 00 00       	b.jal      b6 <_pone+0xb6>
  bc:	04 a3                   	b.mov      r5,r3
  be:	04 c4                   	b.mov      r6,r4
  c0:	04 6b                   	b.mov      r3,r11
  c2:	04 8c                   	b.mov      r4,r12
  c4:	a4 00 00 00 00 00       	b.jal      c4 <_pone+0xc4>
  ca:	50 ad 10                	b.mlwz     r5,0x8(r13),0x0
  cd:	a4 00 00 00 00 00       	b.jal      cd <_pone+0xcd>
  d3:	04 a3                   	b.mov      r5,r3
  d5:	04 c4                   	b.mov      r6,r4
  d7:	04 6b                   	b.mov      r3,r11
  d9:	04 8c                   	b.mov      r4,r12
  db:	a4 00 00 00 00 00       	b.jal      db <_pone+0xdb>
  e1:	50 ad 00                	b.mlwz     r5,0x0(r13),0x0
  e4:	a4 00 00 00 00 00       	b.jal      e4 <_pone+0xe4>
  ea:	05 a3                   	b.mov      r13,r3
  ec:	05 c4                   	b.mov      r14,r4
  ee:	04 6b                   	b.mov      r3,r11
  f0:	04 8c                   	b.mov      r4,r12
  f2:	50 af 04                	b.mlwz     r5,0x20(r15),0x0
  f5:	a4 00 00 00 00 00       	b.jal      f5 <_pone+0xf5>
  fb:	50 af 18                	b.mlwz     r5,0x18(r15),0x0
  fe:	a4 00 00 00 00 00       	b.jal      fe <_pone+0xfe>
 104:	04 a3                   	b.mov      r5,r3
 106:	04 c4                   	b.mov      r6,r4
 108:	04 6b                   	b.mov      r3,r11
 10a:	04 8c                   	b.mov      r4,r12
 10c:	a4 00 00 00 00 00       	b.jal      10c <_pone+0x10c>
 112:	50 af 08                	b.mlwz     r5,0x10(r15),0x0
 115:	a4 00 00 00 00 00       	b.jal      115 <_pone+0x115>
 11b:	04 a3                   	b.mov      r5,r3
 11d:	04 c4                   	b.mov      r6,r4
 11f:	04 6b                   	b.mov      r3,r11
 121:	04 8c                   	b.mov      r4,r12
 123:	a4 00 00 00 00 00       	b.jal      123 <_pone+0x123>
 129:	50 af 10                	b.mlwz     r5,0x8(r15),0x0
 12c:	a4 00 00 00 00 00       	b.jal      12c <_pone+0x12c>
 132:	04 a3                   	b.mov      r5,r3
 134:	04 c4                   	b.mov      r6,r4
 136:	04 6b                   	b.mov      r3,r11
 138:	04 8c                   	b.mov      r4,r12
 13a:	a4 00 00 00 00 00       	b.jal      13a <_pone+0x13a>
 140:	50 af 00                	b.mlwz     r5,0x0(r15),0x0
 143:	a4 00 00 00 00 00       	b.jal      143 <_pone+0x143>
 149:	04 a3                   	b.mov      r5,r3
 14b:	04 c4                   	b.mov      r6,r4
 14d:	04 6b                   	b.mov      r3,r11
 14f:	04 8c                   	b.mov      r4,r12
 151:	a4 00 00 00 00 00       	b.jal      151 <_pone+0x151>
 157:	98 a0 00 00 0f fc       	b.ori      r5,r0,0x3ff00000
 15d:	00 c0                   	b.movi     r6,0x0
 15f:	a4 00 00 00 00 00       	b.jal      15f <_pone+0x15f>
 165:	04 a3                   	b.mov      r5,r3
 167:	04 c4                   	b.mov      r6,r4
 169:	04 6d                   	b.mov      r3,r13
 16b:	04 8e                   	b.mov      r4,r14
 16d:	a4 00 00 00 00 00       	b.jal      16d <_pone+0x16d>
 173:	98 a0 00 00 0f fc       	b.ori      r5,r0,0x3ff00000
 179:	00 c0                   	b.movi     r6,0x0
 17b:	a4 00 00 00 00 00       	b.jal      17b <_pone+0x17b>
 181:	47 be 00                	b.reti     0x7,0x0

00000184 <_qone>:
 184:	47 ae 40                	b.entri    0x7,0x2
 187:	31 41 24                	b.addi     r10,r1,0x24
 18a:	30 ca 3b                	b.addi     r6,r10,0xffffffdc
 18d:	54 66 00                	b.msw      0x0(r6),r3,0x0
 190:	cc ca 7b ff             	b.lwz      r6,0xffffffdc(r10)
 194:	94 e6 ff ff ff fe       	b.andi     r7,r6,0x7fffffff
 19a:	99 a0 06 80 00 00       	b.ori      r13,r0,0x160
 1a0:	99 e0 09 80 00 00       	b.ori      r15,r0,0x190
 1a6:	98 c0 ff ff f8 02       	b.ori      r6,r0,0x401fffff
 1ac:	d3 4e 63 c0             	b.bgts     r7,r6,1e8 <_qone+0x64>
 1b0:	99 a0 03 80 00 00       	b.ori      r13,r0,0x1c0
 1b6:	99 e0 0f 80 00 00       	b.ori      r15,r0,0x1f0
 1bc:	98 c0 51 74 48 02       	b.ori      r6,r0,0x40122e8a
 1c2:	d3 4e 66 40             	b.bgts     r7,r6,1e8 <_qone+0x64>
 1c6:	99 a0 04 40 00 00       	b.ori      r13,r0,0x220
 1cc:	99 e0 0a 40 00 00       	b.ori      r15,r0,0x250
 1d2:	98 c0 36 db 60 02       	b.ori      r6,r0,0x4006db6c
 1d8:	d3 4e 60 80             	b.bgts     r7,r6,1e8 <_qone+0x64>
 1dc:	99 a0 01 40 00 00       	b.ori      r13,r0,0x280
 1e2:	99 e0 0d 40 00 00       	b.ori      r15,r0,0x2b0
 1e8:	30 ea 3b                	b.addi     r7,r10,0xffffffdc
 1eb:	50 67 00                	b.mlwz     r3,0x0(r7),0x0
 1ee:	04 a3                   	b.mov      r5,r3
 1f0:	04 c4                   	b.mov      r6,r4
 1f2:	a4 00 00 00 00 00       	b.jal      1f2 <_qone+0x6e>
 1f8:	04 a3                   	b.mov      r5,r3
 1fa:	04 c4                   	b.mov      r6,r4
 1fc:	98 60 00 00 0f fc       	b.ori      r3,r0,0x3ff00000
 202:	00 80                   	b.movi     r4,0x0
 204:	a4 00 00 00 00 00       	b.jal      204 <_qone+0x80>
 20a:	05 63                   	b.mov      r11,r3
 20c:	05 84                   	b.mov      r12,r4
 20e:	04 6b                   	b.mov      r3,r11
 210:	50 ad 14                	b.mlwz     r5,0x28(r13),0x0
 213:	a4 00 00 00 00 00       	b.jal      213 <_qone+0x8f>
 219:	50 ad 04                	b.mlwz     r5,0x20(r13),0x0
 21c:	a4 00 00 00 00 00       	b.jal      21c <_qone+0x98>
 222:	04 a3                   	b.mov      r5,r3
 224:	04 c4                   	b.mov      r6,r4
 226:	04 6b                   	b.mov      r3,r11
 228:	04 8c                   	b.mov      r4,r12
 22a:	a4 00 00 00 00 00       	b.jal      22a <_qone+0xa6>
 230:	50 ad 18                	b.mlwz     r5,0x18(r13),0x0
 233:	a4 00 00 00 00 00       	b.jal      233 <_qone+0xaf>
 239:	04 a3                   	b.mov      r5,r3
 23b:	04 c4                   	b.mov      r6,r4
 23d:	04 6b                   	b.mov      r3,r11
 23f:	04 8c                   	b.mov      r4,r12
 241:	a4 00 00 00 00 00       	b.jal      241 <_qone+0xbd>
 247:	50 ad 08                	b.mlwz     r5,0x10(r13),0x0
 24a:	a4 00 00 00 00 00       	b.jal      24a <_qone+0xc6>
 250:	04 a3                   	b.mov      r5,r3
 252:	04 c4                   	b.mov      r6,r4
 254:	04 6b                   	b.mov      r3,r11
 256:	04 8c                   	b.mov      r4,r12
 258:	a4 00 00 00 00 00       	b.jal      258 <_qone+0xd4>
 25e:	50 ad 10                	b.mlwz     r5,0x8(r13),0x0
 261:	a4 00 00 00 00 00       	b.jal      261 <_qone+0xdd>
 267:	04 a3                   	b.mov      r5,r3
 269:	04 c4                   	b.mov      r6,r4
 26b:	04 6b                   	b.mov      r3,r11
 26d:	04 8c                   	b.mov      r4,r12
 26f:	a4 00 00 00 00 00       	b.jal      26f <_qone+0xeb>
 275:	50 ad 00                	b.mlwz     r5,0x0(r13),0x0
 278:	a4 00 00 00 00 00       	b.jal      278 <_qone+0xf4>
 27e:	05 a3                   	b.mov      r13,r3
 280:	05 c4                   	b.mov      r14,r4
 282:	04 6b                   	b.mov      r3,r11
 284:	04 8c                   	b.mov      r4,r12
 286:	50 af 14                	b.mlwz     r5,0x28(r15),0x0
 289:	a4 00 00 00 00 00       	b.jal      289 <_qone+0x105>
 28f:	50 af 04                	b.mlwz     r5,0x20(r15),0x0
 292:	a4 00 00 00 00 00       	b.jal      292 <_qone+0x10e>
 298:	04 a3                   	b.mov      r5,r3
 29a:	04 c4                   	b.mov      r6,r4
 29c:	04 6b                   	b.mov      r3,r11
 29e:	04 8c                   	b.mov      r4,r12
 2a0:	a4 00 00 00 00 00       	b.jal      2a0 <_qone+0x11c>
 2a6:	50 af 18                	b.mlwz     r5,0x18(r15),0x0
 2a9:	a4 00 00 00 00 00       	b.jal      2a9 <_qone+0x125>
 2af:	04 a3                   	b.mov      r5,r3
 2b1:	04 c4                   	b.mov      r6,r4
 2b3:	04 6b                   	b.mov      r3,r11
 2b5:	04 8c                   	b.mov      r4,r12
 2b7:	a4 00 00 00 00 00       	b.jal      2b7 <_qone+0x133>
 2bd:	50 af 08                	b.mlwz     r5,0x10(r15),0x0
 2c0:	a4 00 00 00 00 00       	b.jal      2c0 <_qone+0x13c>
 2c6:	04 a3                   	b.mov      r5,r3
 2c8:	04 c4                   	b.mov      r6,r4
 2ca:	04 6b                   	b.mov      r3,r11
 2cc:	04 8c                   	b.mov      r4,r12
 2ce:	a4 00 00 00 00 00       	b.jal      2ce <_qone+0x14a>
 2d4:	50 af 10                	b.mlwz     r5,0x8(r15),0x0
 2d7:	a4 00 00 00 00 00       	b.jal      2d7 <_qone+0x153>
 2dd:	04 a3                   	b.mov      r5,r3
 2df:	04 c4                   	b.mov      r6,r4
 2e1:	04 6b                   	b.mov      r3,r11
 2e3:	04 8c                   	b.mov      r4,r12
 2e5:	a4 00 00 00 00 00       	b.jal      2e5 <_qone+0x161>
 2eb:	50 af 00                	b.mlwz     r5,0x0(r15),0x0
 2ee:	a4 00 00 00 00 00       	b.jal      2ee <_qone+0x16a>
 2f4:	04 a3                   	b.mov      r5,r3
 2f6:	04 c4                   	b.mov      r6,r4
 2f8:	04 6b                   	b.mov      r3,r11
 2fa:	04 8c                   	b.mov      r4,r12
 2fc:	a4 00 00 00 00 00       	b.jal      2fc <_qone+0x178>
 302:	98 a0 00 00 0f fc       	b.ori      r5,r0,0x3ff00000
 308:	00 c0                   	b.movi     r6,0x0
 30a:	a4 00 00 00 00 00       	b.jal      30a <_qone+0x186>
 310:	04 a3                   	b.mov      r5,r3
 312:	04 c4                   	b.mov      r6,r4
 314:	04 6d                   	b.mov      r3,r13
 316:	04 8e                   	b.mov      r4,r14
 318:	a4 00 00 00 00 00       	b.jal      318 <_qone+0x194>
 31e:	98 a0 00 00 1b fc       	b.ori      r5,r0,0x3fd80000
 324:	00 c0                   	b.movi     r6,0x0
 326:	a4 00 00 00 00 00       	b.jal      326 <_qone+0x1a2>
 32c:	30 ea 3b                	b.addi     r7,r10,0xffffffdc
 32f:	50 a7 00                	b.mlwz     r5,0x0(r7),0x0
 332:	a4 00 00 00 00 00       	b.jal      332 <_qone+0x1ae>
 338:	47 be 40                	b.reti     0x7,0x2

0000033b <___ieee754_j1>:
 33b:	47 ae 70                	b.entri    0x7,0xe
 33e:	31 41 2a                	b.addi     r10,r1,0x54
 341:	30 ea 2d                	b.addi     r7,r10,0xffffffb4
 344:	54 67 00                	b.msw      0x0(r7),r3,0x0
 347:	cc ea 6d ff             	b.lwz      r7,0xffffffb4(r10)
 34b:	cc ea 1b ff             	b.sw       0xffffffd8(r10),r7
 34f:	95 e7 ff ff ff fe       	b.andi     r15,r7,0x7fffffff
 355:	98 e0 ff ff f7 fe       	b.ori      r7,r0,0x7fefffff
 35b:	d3 0e fd 80             	b.bges     r7,r15,376 <___ieee754_j1+0x3b>
 35f:	98 60 00 00 0f fc       	b.ori      r3,r0,0x3ff00000
 365:	00 80                   	b.movi     r4,0x0
 367:	30 ea 2d                	b.addi     r7,r10,0xffffffb4
 36a:	50 a7 00                	b.mlwz     r5,0x0(r7),0x0
 36d:	a4 00 00 00 00 00       	b.jal      36d <___ieee754_j1+0x32>
 373:	46 bc c0                	b.j        6b0 <___ieee754_j1+0x375>
 376:	a4 00 00 00 00 00       	b.jal      376 <___ieee754_j1+0x3b>
 37c:	05 a3                   	b.mov      r13,r3
 37e:	05 c4                   	b.mov      r14,r4
 380:	98 e0 ff ff ff fc       	b.ori      r7,r0,0x3fffffff
 386:	d3 0e f9 68             	b.bges     r7,r15,4ef <___ieee754_j1+0x1b4>
 38a:	a4 00 00 00 00 00       	b.jal      38a <___ieee754_j1+0x4f>
 390:	05 63                   	b.mov      r11,r3
 392:	05 84                   	b.mov      r12,r4
 394:	04 6d                   	b.mov      r3,r13
 396:	04 8e                   	b.mov      r4,r14
 398:	a4 00 00 00 00 00       	b.jal      398 <___ieee754_j1+0x5d>
 39e:	30 ea 3d                	b.addi     r7,r10,0xffffffbc
 3a1:	54 67 00                	b.msw      0x0(r7),r3,0x0
 3a4:	90 6b 00 00 00 01       	b.addi     r3,r11,0x80000000
 3aa:	04 8c                   	b.mov      r4,r12
 3ac:	50 a7 00                	b.mlwz     r5,0x0(r7),0x0
 3af:	a4 00 00 00 00 00       	b.jal      3af <___ieee754_j1+0x74>
 3b5:	30 ea 23                	b.addi     r7,r10,0xffffffc4
 3b8:	54 67 00                	b.msw      0x0(r7),r3,0x0
 3bb:	04 6b                   	b.mov      r3,r11
 3bd:	04 8c                   	b.mov      r4,r12
 3bf:	30 ea 3d                	b.addi     r7,r10,0xffffffbc
 3c2:	50 a7 00                	b.mlwz     r5,0x0(r7),0x0
 3c5:	a4 00 00 00 00 00       	b.jal      3c5 <___ieee754_j1+0x8a>
 3cb:	30 ea 33                	b.addi     r7,r10,0xffffffcc
 3ce:	54 67 00                	b.msw      0x0(r7),r3,0x0
 3d1:	98 e0 ff ff fb fe       	b.ori      r7,r0,0x7fdfffff
 3d7:	d3 5e 75 60             	b.bgts     r15,r7,441 <___ieee754_j1+0x106>
 3db:	04 6d                   	b.mov      r3,r13
 3dd:	04 8e                   	b.mov      r4,r14
 3df:	04 ad                   	b.mov      r5,r13
 3e1:	04 ce                   	b.mov      r6,r14
 3e3:	a4 00 00 00 00 00       	b.jal      3e3 <___ieee754_j1+0xa8>
 3e9:	a4 00 00 00 00 00       	b.jal      3e9 <___ieee754_j1+0xae>
 3ef:	30 ea 3b                	b.addi     r7,r10,0xffffffdc
 3f2:	54 67 00                	b.msw      0x0(r7),r3,0x0
 3f5:	04 6b                   	b.mov      r3,r11
 3f7:	04 8c                   	b.mov      r4,r12
 3f9:	30 ea 3d                	b.addi     r7,r10,0xffffffbc
 3fc:	50 a7 00                	b.mlwz     r5,0x0(r7),0x0
 3ff:	a4 00 00 00 00 00       	b.jal      3ff <___ieee754_j1+0xc4>
 405:	00 a0                   	b.movi     r5,0x0
 407:	00 c0                   	b.movi     r6,0x0
 409:	a4 00 00 00 00 00       	b.jal      409 <___ieee754_j1+0xce>
 40f:	44 03 58                	b.blesi    r3,0x0,429 <___ieee754_j1+0xee>
 412:	30 ea 3b                	b.addi     r7,r10,0xffffffdc
 415:	50 67 00                	b.mlwz     r3,0x0(r7),0x0
 418:	30 ea 23                	b.addi     r7,r10,0xffffffc4
 41b:	50 a7 00                	b.mlwz     r5,0x0(r7),0x0
 41e:	a4 00 00 00 00 00       	b.jal      41e <___ieee754_j1+0xe3>
 424:	30 ea 33                	b.addi     r7,r10,0xffffffcc
 427:	0f a0                   	b.j        43e <___ieee754_j1+0x103>
 429:	30 ea 3b                	b.addi     r7,r10,0xffffffdc
 42c:	50 67 00                	b.mlwz     r3,0x0(r7),0x0
 42f:	30 ea 33                	b.addi     r7,r10,0xffffffcc
 432:	50 a7 00                	b.mlwz     r5,0x0(r7),0x0
 435:	a4 00 00 00 00 00       	b.jal      435 <___ieee754_j1+0xfa>
 43b:	30 ea 23                	b.addi     r7,r10,0xffffffc4
 43e:	54 67 00                	b.msw      0x0(r7),r3,0x0
 441:	98 e0 00 00 00 12       	b.ori      r7,r0,0x48000000
 447:	d3 0e f0 c0             	b.bges     r7,r15,477 <___ieee754_j1+0x13c>
 44b:	04 6d                   	b.mov      r3,r13
 44d:	04 8e                   	b.mov      r4,r14
 44f:	a4 00 00 00 00 00       	b.jal      44f <___ieee754_j1+0x114>
 455:	05 63                   	b.mov      r11,r3
 457:	05 84                   	b.mov      r12,r4
 459:	30 ea 33                	b.addi     r7,r10,0xffffffcc
 45c:	50 67 00                	b.mlwz     r3,0x0(r7),0x0
 45f:	98 a0 eb b0 47 fc       	b.ori      r5,r0,0x3fe20dd7
 465:	98 c0 b6 d9 42 0a       	b.ori      r6,r0,0x50429b6d
 46b:	a4 00 00 00 00 00       	b.jal      46b <___ieee754_j1+0x130>
 471:	04 ab                   	b.mov      r5,r11
 473:	04 cc                   	b.mov      r6,r12
 475:	0d 18                   	b.j        4d7 <___ieee754_j1+0x19c>
 477:	04 6d                   	b.mov      r3,r13
 479:	04 8e                   	b.mov      r4,r14
 47b:	4a 87 7f                	b.jal      0 <_pone>
 47e:	30 ea 33                	b.addi     r7,r10,0xffffffcc
 481:	50 a7 00                	b.mlwz     r5,0x0(r7),0x0
 484:	a4 00 00 00 00 00       	b.jal      484 <___ieee754_j1+0x149>
 48a:	05 63                   	b.mov      r11,r3
 48c:	05 84                   	b.mov      r12,r4
 48e:	04 6d                   	b.mov      r3,r13
 490:	04 8e                   	b.mov      r4,r14
 492:	49 3c ff                	b.jal      184 <_qone>
 495:	30 ea 23                	b.addi     r7,r10,0xffffffc4
 498:	50 a7 00                	b.mlwz     r5,0x0(r7),0x0
 49b:	a4 00 00 00 00 00       	b.jal      49b <___ieee754_j1+0x160>
 4a1:	04 a3                   	b.mov      r5,r3
 4a3:	04 c4                   	b.mov      r6,r4
 4a5:	04 6b                   	b.mov      r3,r11
 4a7:	04 8c                   	b.mov      r4,r12
 4a9:	a4 00 00 00 00 00       	b.jal      4a9 <___ieee754_j1+0x16e>
 4af:	98 a0 eb b0 47 fc       	b.ori      r5,r0,0x3fe20dd7
 4b5:	98 c0 b6 d9 42 0a       	b.ori      r6,r0,0x50429b6d
 4bb:	a4 00 00 00 00 00       	b.jal      4bb <___ieee754_j1+0x180>
 4c1:	05 63                   	b.mov      r11,r3
 4c3:	05 84                   	b.mov      r12,r4
 4c5:	04 6d                   	b.mov      r3,r13
 4c7:	04 8e                   	b.mov      r4,r14
 4c9:	a4 00 00 00 00 00       	b.jal      4c9 <___ieee754_j1+0x18e>
 4cf:	04 a3                   	b.mov      r5,r3
 4d1:	04 c4                   	b.mov      r6,r4
 4d3:	04 6b                   	b.mov      r3,r11
 4d5:	04 8c                   	b.mov      r4,r12
 4d7:	a4 00 00 00 00 00       	b.jal      4d7 <___ieee754_j1+0x19c>
 4dd:	cc ea 5b ff             	b.lwz      r7,0xffffffd8(r10)
 4e1:	d0 80 7f 38             	b.bgesi    r7,0x0,6b0 <___ieee754_j1+0x375>
 4e5:	90 e3 00 00 00 01       	b.addi     r7,r3,0x80000000
 4eb:	04 67                   	b.mov      r3,r7
 4ed:	0f 0e                   	b.j        6b0 <___ieee754_j1+0x375>
 4ef:	98 e0 ff ff fc 7c       	b.ori      r7,r0,0x3e3fffff
 4f5:	d3 5e 7c 20             	b.bgts     r15,r7,538 <___ieee754_j1+0x1fd>
 4f9:	30 ea 2d                	b.addi     r7,r10,0xffffffb4
 4fc:	50 67 00                	b.mlwz     r3,0x0(r7),0x0
 4ff:	98 a0 3c 27 ec 7e       	b.ori      r5,r0,0x7e37e43c
 505:	98 c0 39 ae 00 11       	b.ori      r6,r0,0x8800759c
 50b:	a4 00 00 00 00 00       	b.jal      50b <___ieee754_j1+0x1d0>
 511:	98 a0 00 00 0f fc       	b.ori      r5,r0,0x3ff00000
 517:	00 c0                   	b.movi     r6,0x0
 519:	a4 00 00 00 00 00       	b.jal      519 <___ieee754_j1+0x1de>
 51f:	44 03 98                	b.blesi    r3,0x0,538 <___ieee754_j1+0x1fd>
 522:	30 ea 2d                	b.addi     r7,r10,0xffffffb4
 525:	50 67 00                	b.mlwz     r3,0x0(r7),0x0
 528:	98 a0 00 00 07 fc       	b.ori      r5,r0,0x3fe00000
 52e:	00 c0                   	b.movi     r6,0x0
 530:	a4 00 00 00 00 00       	b.jal      530 <___ieee754_j1+0x1f5>
 536:	0d 7a                   	b.j        6b0 <___ieee754_j1+0x375>
 538:	30 ea 2d                	b.addi     r7,r10,0xffffffb4
 53b:	50 67 00                	b.mlwz     r3,0x0(r7),0x0
 53e:	04 a3                   	b.mov      r5,r3
 540:	04 c4                   	b.mov      r6,r4
 542:	a4 00 00 00 00 00       	b.jal      542 <___ieee754_j1+0x207>
 548:	05 63                   	b.mov      r11,r3
 54a:	05 84                   	b.mov      r12,r4
 54c:	04 6b                   	b.mov      r3,r11
 54e:	98 a0 5f 55 56 7c       	b.ori      r5,r0,0x3e6aaafa
 554:	98 c0 9b d0 53 62       	b.ori      r6,r0,0x46ca0bd9
 55a:	a4 00 00 00 00 00       	b.jal      55a <___ieee754_j1+0x21f>
 560:	98 a0 63 a3 0f 7c       	b.ori      r5,r0,0x3ef0c5c6
 566:	98 c0 16 69 68 5d       	b.ori      r6,r0,0xba169668
 56c:	a4 00 00 00 00 00       	b.jal      56c <___ieee754_j1+0x231>
 572:	04 a3                   	b.mov      r5,r3
 574:	04 c4                   	b.mov      r6,r4
 576:	04 6b                   	b.mov      r3,r11
 578:	04 8c                   	b.mov      r4,r12
 57a:	a4 00 00 00 00 00       	b.jal      57a <___ieee754_j1+0x23f>
 580:	98 a0 f9 b0 ea fc       	b.ori      r5,r0,0x3f570d9f
 586:	98 c0 86 34 e2 19       	b.ori      r6,r0,0x98472c61
 58c:	a4 00 00 00 00 00       	b.jal      58c <___ieee754_j1+0x251>
 592:	04 a3                   	b.mov      r5,r3
 594:	04 c4                   	b.mov      r6,r4
 596:	04 6b                   	b.mov      r3,r11
 598:	04 8c                   	b.mov      r4,r12
 59a:	a4 00 00 00 00 00       	b.jal      59a <___ieee754_j1+0x25f>
 5a0:	98 a0 00 00 0d fc       	b.ori      r5,r0,0x3fb00000
 5a6:	00 c0                   	b.movi     r6,0x0
 5a8:	a4 00 00 00 00 00       	b.jal      5a8 <___ieee754_j1+0x26d>
 5ae:	04 a3                   	b.mov      r5,r3
 5b0:	04 c4                   	b.mov      r6,r4
 5b2:	04 6b                   	b.mov      r3,r11
 5b4:	04 8c                   	b.mov      r4,r12
 5b6:	a4 00 00 00 00 00       	b.jal      5b6 <___ieee754_j1+0x27b>
 5bc:	05 a3                   	b.mov      r13,r3
 5be:	05 c4                   	b.mov      r14,r4
 5c0:	30 ea 2d                	b.addi     r7,r10,0xffffffb4
 5c3:	50 67 00                	b.mlwz     r3,0x0(r7),0x0
 5c6:	98 a0 00 00 07 fc       	b.ori      r5,r0,0x3fe00000
 5cc:	00 c0                   	b.movi     r6,0x0
 5ce:	a4 00 00 00 00 00       	b.jal      5ce <___ieee754_j1+0x293>
 5d4:	30 ea 35                	b.addi     r7,r10,0xffffffac
 5d7:	54 67 00                	b.msw      0x0(r7),r3,0x0
 5da:	04 6d                   	b.mov      r3,r13
 5dc:	04 8e                   	b.mov      r4,r14
 5de:	30 ea 2d                	b.addi     r7,r10,0xffffffb4
 5e1:	50 a7 00                	b.mlwz     r5,0x0(r7),0x0
 5e4:	a4 00 00 00 00 00       	b.jal      5e4 <___ieee754_j1+0x2a9>
 5ea:	05 a3                   	b.mov      r13,r3
 5ec:	05 c4                   	b.mov      r14,r4
 5ee:	04 6b                   	b.mov      r3,r11
 5f0:	04 8c                   	b.mov      r4,r12
 5f2:	98 a0 f3 54 d5 bc       	b.ori      r5,r0,0x3dab2acf
 5f8:	98 c0 1b 7e 9d f3       	b.ori      r6,r0,0xcfb97ed8
 5fe:	a4 00 00 00 00 00       	b.jal      5fe <___ieee754_j1+0x2c3>
 604:	98 a0 11 35 ac 7c       	b.ori      r5,r0,0x3e35ac88
 60a:	98 c0 34 ff be 93       	b.ori      r6,r0,0xc97dff2c
 610:	a4 00 00 00 00 00       	b.jal      610 <___ieee754_j1+0x2d5>
 616:	04 a3                   	b.mov      r5,r3
 618:	04 c4                   	b.mov      r6,r4
 61a:	04 6b                   	b.mov      r3,r11
 61c:	04 8c                   	b.mov      r4,r12
 61e:	a4 00 00 00 00 00       	b.jal      61e <___ieee754_j1+0x2e3>
 624:	98 a0 1f fd cd 7c       	b.ori      r5,r0,0x3eb3bff8
 62a:	98 c0 19 21 fc cc       	b.ori      r6,r0,0x333f8498
 630:	a4 00 00 00 00 00       	b.jal      630 <___ieee754_j1+0x2f5>
 636:	04 a3                   	b.mov      r5,r3
 638:	04 c4                   	b.mov      r6,r4
 63a:	04 6b                   	b.mov      r3,r11
 63c:	04 8c                   	b.mov      r4,r12
 63e:	a4 00 00 00 00 00       	b.jal      63e <___ieee754_j1+0x303>
 644:	98 a0 6a fa 14 fc       	b.ori      r5,r0,0x3f285f56
 64a:	98 c0 26 6f b3 9d       	b.ori      r6,r0,0xb9cdf664
 650:	a4 00 00 00 00 00       	b.jal      650 <___ieee754_j1+0x315>
 656:	04 a3                   	b.mov      r5,r3
 658:	04 c4                   	b.mov      r6,r4
 65a:	04 6b                   	b.mov      r3,r11
 65c:	04 8c                   	b.mov      r4,r12
 65e:	a4 00 00 00 00 00       	b.jal      65e <___ieee754_j1+0x323>
 664:	98 a0 d0 b9 c9 fc       	b.ori      r5,r0,0x3f939d0b
 66a:	98 c0 ca 7e c6 48       	b.ori      r6,r0,0x12637e53
 670:	a4 00 00 00 00 00       	b.jal      670 <___ieee754_j1+0x335>
 676:	04 a3                   	b.mov      r5,r3
 678:	04 c4                   	b.mov      r6,r4
 67a:	04 6b                   	b.mov      r3,r11
 67c:	04 8c                   	b.mov      r4,r12
 67e:	a4 00 00 00 00 00       	b.jal      67e <___ieee754_j1+0x343>
 684:	98 a0 00 00 0f fc       	b.ori      r5,r0,0x3ff00000
 68a:	00 c0                   	b.movi     r6,0x0
 68c:	a4 00 00 00 00 00       	b.jal      68c <___ieee754_j1+0x351>
 692:	04 a3                   	b.mov      r5,r3
 694:	04 c4                   	b.mov      r6,r4
 696:	04 6d                   	b.mov      r3,r13
 698:	04 8e                   	b.mov      r4,r14
 69a:	a4 00 00 00 00 00       	b.jal      69a <___ieee754_j1+0x35f>
 6a0:	04 a3                   	b.mov      r5,r3
 6a2:	04 c4                   	b.mov      r6,r4
 6a4:	30 ea 35                	b.addi     r7,r10,0xffffffac
 6a7:	50 67 00                	b.mlwz     r3,0x0(r7),0x0
 6aa:	a4 00 00 00 00 00       	b.jal      6aa <___ieee754_j1+0x36f>
 6b0:	47 be 70                	b.reti     0x7,0xe

000006b3 <___ieee754_y1>:
 6b3:	47 ae 30                	b.entri    0x7,0xc
 6b6:	31 41 32                	b.addi     r10,r1,0x4c
 6b9:	30 aa 2d                	b.addi     r5,r10,0xffffffb4
 6bc:	54 65 00                	b.msw      0x0(r5),r3,0x0
 6bf:	95 e3 ff ff ff fe       	b.andi     r15,r3,0x7fffffff
 6c5:	98 a0 ff ff f7 fe       	b.ori      r5,r0,0x7fefffff
 6cb:	d3 0a f3 40             	b.bges     r5,r15,6f7 <___ieee754_y1+0x44>
 6cf:	04 a3                   	b.mov      r5,r3
 6d1:	04 c4                   	b.mov      r6,r4
 6d3:	a4 00 00 00 00 00       	b.jal      6d3 <___ieee754_y1+0x20>
 6d9:	04 a3                   	b.mov      r5,r3
 6db:	04 c4                   	b.mov      r6,r4
 6dd:	30 ea 2d                	b.addi     r7,r10,0xffffffb4
 6e0:	50 67 00                	b.mlwz     r3,0x0(r7),0x0
 6e3:	a4 00 00 00 00 00       	b.jal      6e3 <___ieee754_y1+0x30>
 6e9:	04 a3                   	b.mov      r5,r3
 6eb:	04 c4                   	b.mov      r6,r4
 6ed:	98 60 00 00 0f fc       	b.ori      r3,r0,0x3ff00000
 6f3:	00 80                   	b.movi     r4,0x0
 6f5:	0c a0                   	b.j        709 <___ieee754_y1+0x56>
 6f7:	60 ef 21                	b.or       r7,r15,r4
 6fa:	41 07 18                	b.bnei     r7,0x0,712 <___ieee754_y1+0x5f>
 6fd:	98 60 00 00 0f fd       	b.ori      r3,r0,0xbff00000
 703:	00 80                   	b.movi     r4,0x0
 705:	00 a0                   	b.movi     r5,0x0
 707:	00 c0                   	b.movi     r6,0x0
 709:	a4 00 00 00 00 00       	b.jal      709 <___ieee754_y1+0x56>
 70f:	46 16 c0                	b.j        a77 <___ieee754_y1+0x3c4>
 712:	42 03 b0                	b.bgesi    r3,0x0,71f <___ieee754_y1+0x6c>
 715:	00 60                   	b.movi     r3,0x0
 717:	00 80                   	b.movi     r4,0x0
 719:	04 a3                   	b.mov      r5,r3
 71b:	04 c4                   	b.mov      r6,r4
 71d:	0c df                   	b.j        709 <___ieee754_y1+0x56>
 71f:	98 a0 ff ff ff fc       	b.ori      r5,r0,0x3fffffff
 725:	d3 0a f6 a8             	b.bges     r5,r15,87b <___ieee754_y1+0x1c8>
 729:	a4 00 00 00 00 00       	b.jal      729 <___ieee754_y1+0x76>
 72f:	05 63                   	b.mov      r11,r3
 731:	05 84                   	b.mov      r12,r4
 733:	30 ca 2d                	b.addi     r6,r10,0xffffffb4
 736:	50 66 00                	b.mlwz     r3,0x0(r6),0x0
 739:	a4 00 00 00 00 00       	b.jal      739 <___ieee754_y1+0x86>
 73f:	05 a3                   	b.mov      r13,r3
 741:	05 c4                   	b.mov      r14,r4
 743:	90 6b 00 00 00 01       	b.addi     r3,r11,0x80000000
 749:	04 8c                   	b.mov      r4,r12
 74b:	04 ad                   	b.mov      r5,r13
 74d:	04 ce                   	b.mov      r6,r14
 74f:	a4 00 00 00 00 00       	b.jal      74f <___ieee754_y1+0x9c>
 755:	30 ea 33                	b.addi     r7,r10,0xffffffcc
 758:	54 67 00                	b.msw      0x0(r7),r3,0x0
 75b:	04 6b                   	b.mov      r3,r11
 75d:	04 8c                   	b.mov      r4,r12
 75f:	04 ad                   	b.mov      r5,r13
 761:	04 ce                   	b.mov      r6,r14
 763:	a4 00 00 00 00 00       	b.jal      763 <___ieee754_y1+0xb0>
 769:	30 aa 2b                	b.addi     r5,r10,0xffffffd4
 76c:	54 65 00                	b.msw      0x0(r5),r3,0x0
 76f:	98 c0 ff ff fb fe       	b.ori      r6,r0,0x7fdfffff
 775:	d3 5e 65 60             	b.bgts     r15,r6,7df <___ieee754_y1+0x12c>
 779:	30 ea 2d                	b.addi     r7,r10,0xffffffb4
 77c:	50 67 00                	b.mlwz     r3,0x0(r7),0x0
 77f:	04 a3                   	b.mov      r5,r3
 781:	04 c4                   	b.mov      r6,r4
 783:	a4 00 00 00 00 00       	b.jal      783 <___ieee754_y1+0xd0>
 789:	a4 00 00 00 00 00       	b.jal      789 <___ieee754_y1+0xd6>
 78f:	30 aa 3b                	b.addi     r5,r10,0xffffffdc
 792:	54 65 00                	b.msw      0x0(r5),r3,0x0
 795:	04 6b                   	b.mov      r3,r11
 797:	04 8c                   	b.mov      r4,r12
 799:	04 ad                   	b.mov      r5,r13
 79b:	04 ce                   	b.mov      r6,r14
 79d:	a4 00 00 00 00 00       	b.jal      79d <___ieee754_y1+0xea>
 7a3:	00 a0                   	b.movi     r5,0x0
 7a5:	00 c0                   	b.movi     r6,0x0
 7a7:	a4 00 00 00 00 00       	b.jal      7a7 <___ieee754_y1+0xf4>
 7ad:	44 03 58                	b.blesi    r3,0x0,7c7 <___ieee754_y1+0x114>
 7b0:	30 ca 3b                	b.addi     r6,r10,0xffffffdc
 7b3:	50 66 00                	b.mlwz     r3,0x0(r6),0x0
 7b6:	30 ea 33                	b.addi     r7,r10,0xffffffcc
 7b9:	50 a7 00                	b.mlwz     r5,0x0(r7),0x0
 7bc:	a4 00 00 00 00 00       	b.jal      7bc <___ieee754_y1+0x109>
 7c2:	30 aa 2b                	b.addi     r5,r10,0xffffffd4
 7c5:	0f a0                   	b.j        7dc <___ieee754_y1+0x129>
 7c7:	30 ca 3b                	b.addi     r6,r10,0xffffffdc
 7ca:	50 66 00                	b.mlwz     r3,0x0(r6),0x0
 7cd:	30 ea 2b                	b.addi     r7,r10,0xffffffd4
 7d0:	50 a7 00                	b.mlwz     r5,0x0(r7),0x0
 7d3:	a4 00 00 00 00 00       	b.jal      7d3 <___ieee754_y1+0x120>
 7d9:	30 aa 33                	b.addi     r5,r10,0xffffffcc
 7dc:	54 65 00                	b.msw      0x0(r5),r3,0x0
 7df:	98 c0 00 00 00 12       	b.ori      r6,r0,0x48000000
 7e5:	d3 0c f4 c0             	b.bges     r6,r15,817 <___ieee754_y1+0x164>
 7e9:	30 ea 2d                	b.addi     r7,r10,0xffffffb4
 7ec:	50 67 00                	b.mlwz     r3,0x0(r7),0x0
 7ef:	a4 00 00 00 00 00       	b.jal      7ef <___ieee754_y1+0x13c>
 7f5:	05 63                   	b.mov      r11,r3
 7f7:	05 84                   	b.mov      r12,r4
 7f9:	30 aa 33                	b.addi     r5,r10,0xffffffcc
 7fc:	50 65 00                	b.mlwz     r3,0x0(r5),0x0
 7ff:	98 a0 eb b0 47 fc       	b.ori      r5,r0,0x3fe20dd7
 805:	98 c0 b6 d9 42 0a       	b.ori      r6,r0,0x50429b6d
 80b:	a4 00 00 00 00 00       	b.jal      80b <___ieee754_y1+0x158>
 811:	04 ab                   	b.mov      r5,r11
 813:	04 cc                   	b.mov      r6,r12
 815:	0c bd                   	b.j        709 <___ieee754_y1+0x56>
 817:	30 ca 2d                	b.addi     r6,r10,0xffffffb4
 81a:	50 66 00                	b.mlwz     r3,0x0(r6),0x0
 81d:	a4 00 00 00 00 00       	b.jal      81d <___ieee754_y1+0x16a>
 823:	05 a3                   	b.mov      r13,r3
 825:	05 c4                   	b.mov      r14,r4
 827:	30 ea 2d                	b.addi     r7,r10,0xffffffb4
 82a:	50 67 00                	b.mlwz     r3,0x0(r7),0x0
 82d:	4b 2f bf                	b.jal      0 <_pone>
 830:	30 ea 33                	b.addi     r7,r10,0xffffffcc
 833:	50 a7 00                	b.mlwz     r5,0x0(r7),0x0
 836:	a4 00 00 00 00 00       	b.jal      836 <___ieee754_y1+0x183>
 83c:	05 63                   	b.mov      r11,r3
 83e:	05 84                   	b.mov      r12,r4
 840:	30 aa 2d                	b.addi     r5,r10,0xffffffb4
 843:	50 65 00                	b.mlwz     r3,0x0(r5),0x0
 846:	49 f2 7f                	b.jal      184 <_qone>
 849:	30 ea 2b                	b.addi     r7,r10,0xffffffd4
 84c:	50 a7 00                	b.mlwz     r5,0x0(r7),0x0
 84f:	a4 00 00 00 00 00       	b.jal      84f <___ieee754_y1+0x19c>
 855:	04 a3                   	b.mov      r5,r3
 857:	04 c4                   	b.mov      r6,r4
 859:	04 6b                   	b.mov      r3,r11
 85b:	04 8c                   	b.mov      r4,r12
 85d:	a4 00 00 00 00 00       	b.jal      85d <___ieee754_y1+0x1aa>
 863:	98 a0 eb b0 47 fc       	b.ori      r5,r0,0x3fe20dd7
 869:	98 c0 b6 d9 42 0a       	b.ori      r6,r0,0x50429b6d
 86f:	a4 00 00 00 00 00       	b.jal      86f <___ieee754_y1+0x1bc>
 875:	04 ad                   	b.mov      r5,r13
 877:	04 ce                   	b.mov      r6,r14
 879:	0c 25                   	b.j        709 <___ieee754_y1+0x56>
 87b:	98 a0 00 00 09 3c       	b.ori      r5,r0,0x3c900000
 881:	d3 5e 51 80             	b.bgts     r15,r5,899 <___ieee754_y1+0x1e6>
 885:	98 60 0c fa 27 fd       	b.ori      r3,r0,0xbfe45f30
 88b:	98 80 c1 13 93 b6       	b.ori      r4,r0,0x6dc9c883
 891:	30 ea 2d                	b.addi     r7,r10,0xffffffb4
 894:	50 a7 00                	b.mlwz     r5,0x0(r7),0x0
 897:	0d 39                   	b.j        709 <___ieee754_y1+0x56>
 899:	30 ea 2d                	b.addi     r7,r10,0xffffffb4
 89c:	50 a7 00                	b.mlwz     r5,0x0(r7),0x0
 89f:	a4 00 00 00 00 00       	b.jal      89f <___ieee754_y1+0x1ec>
 8a5:	05 63                   	b.mov      r11,r3
 8a7:	05 84                   	b.mov      r12,r4
 8a9:	30 aa 2d                	b.addi     r5,r10,0xffffffb4
 8ac:	50 65 00                	b.mlwz     r3,0x0(r5),0x0
 8af:	a4 00 31 5f ff ff       	b.jal      33b <___ieee754_j1>
 8b5:	30 ca 3d                	b.addi     r6,r10,0xffffffbc
 8b8:	54 66 00                	b.msw      0x0(r6),r3,0x0
 8bb:	30 ea 2d                	b.addi     r7,r10,0xffffffb4
 8be:	50 67 00                	b.mlwz     r3,0x0(r7),0x0
 8c1:	a4 00 00 00 00 00       	b.jal      8c1 <___ieee754_y1+0x20e>
 8c7:	30 aa 23                	b.addi     r5,r10,0xffffffc4
 8ca:	54 65 00                	b.msw      0x0(r5),r3,0x0
 8cd:	04 6b                   	b.mov      r3,r11
 8cf:	04 8c                   	b.mov      r4,r12
 8d1:	98 a0 00 35 1e 7d       	b.ori      r5,r0,0xbe78ac00
 8d7:	98 c0 1d a0 89 6a       	b.ori      r6,r0,0x569105b8
 8dd:	a4 00 00 00 00 00       	b.jal      8dd <___ieee754_y1+0x22a>
 8e3:	98 a0 c0 d5 1f 7c       	b.ori      r5,r0,0x3ef8ab03
 8e9:	98 c0 71 1d 65 f1       	b.ori      r6,r0,0x8fa6b88e
 8ef:	a4 00 00 00 00 00       	b.jal      8ef <___ieee754_y1+0x23c>
 8f5:	04 a3                   	b.mov      r5,r3
 8f7:	04 c4                   	b.mov      r6,r4
 8f9:	04 6b                   	b.mov      r3,r11
 8fb:	04 8c                   	b.mov      r4,r12
 8fd:	a4 00 00 00 00 00       	b.jal      8fd <___ieee754_y1+0x24a>
 903:	98 a0 a7 aa fa fc       	b.ori      r5,r0,0x3f5f55e5
 909:	98 c0 f0 af 22 12       	b.ori      r6,r0,0x4844f50f
 90f:	a4 00 00 00 00 00       	b.jal      90f <___ieee754_y1+0x25c>
 915:	04 a3                   	b.mov      r5,r3
 917:	04 c4                   	b.mov      r6,r4
 919:	04 6b                   	b.mov      r3,r11
 91b:	04 8c                   	b.mov      r4,r12
 91d:	a4 00 00 00 00 00       	b.jal      91d <___ieee754_y1+0x26a>
 923:	98 a0 e3 cb 95 fc       	b.ori      r5,r0,0x3fa9d3c7
 929:	98 c0 8b 34 94 6e       	b.ori      r6,r0,0x76292cd1
 92f:	a4 00 00 00 00 00       	b.jal      92f <___ieee754_y1+0x27c>
 935:	04 a3                   	b.mov      r5,r3
 937:	04 c4                   	b.mov      r6,r4
 939:	04 6b                   	b.mov      r3,r11
 93b:	04 8c                   	b.mov      r4,r12
 93d:	a4 00 00 00 00 00       	b.jal      93d <___ieee754_y1+0x28a>
 943:	98 a0 66 18 93 fc       	b.ori      r5,r0,0x3fc91866
 949:	98 c0 51 3d 3c 28       	b.ori      r6,r0,0x143cbc8a
 94f:	a4 00 00 00 00 00       	b.jal      94f <___ieee754_y1+0x29c>
 955:	05 a3                   	b.mov      r13,r3
 957:	05 c4                   	b.mov      r14,r4
 959:	04 6b                   	b.mov      r3,r11
 95b:	04 8c                   	b.mov      r4,r12
 95d:	98 a0 9c 0a 4d bc       	b.ori      r5,r0,0x3db25039
 963:	98 c0 54 ee 53 5b       	b.ori      r6,r0,0xdaca772a
 969:	a4 00 00 00 00 00       	b.jal      969 <___ieee754_y1+0x2b6>
 96f:	98 a0 b8 fd 5c 7c       	b.ori      r5,r0,0x3e3abf1d
 975:	98 c0 61 59 65 da       	b.ori      r6,r0,0x5ba69a86
 97b:	a4 00 00 00 00 00       	b.jal      97b <___ieee754_y1+0x2c8>
 981:	04 a3                   	b.mov      r5,r3
 983:	04 c4                   	b.mov      r6,r4
 985:	04 6b                   	b.mov      r3,r11
 987:	04 8c                   	b.mov      r4,r12
 989:	a4 00 00 00 00 00       	b.jal      989 <___ieee754_y1+0x2d6>
 98f:	98 a0 5a 03 6d 7c       	b.ori      r5,r0,0x3eb6c05a
 995:	98 c0 65 31 72 91       	b.ori      r6,r0,0x894e8ca6
 99b:	a4 00 00 00 00 00       	b.jal      99b <___ieee754_y1+0x2e8>
 9a1:	04 a3                   	b.mov      r5,r3
 9a3:	04 c4                   	b.mov      r6,r4
 9a5:	04 6b                   	b.mov      r3,r11
 9a7:	04 8c                   	b.mov      r4,r12
 9a9:	a4 00 00 00 00 00       	b.jal      9a9 <___ieee754_y1+0x2f6>
 9af:	98 a0 91 31 54 fc       	b.ori      r5,r0,0x3f2a8c89
 9b5:	98 c0 26 ee a4 36       	b.ori      r6,r0,0x6c257764
 9bb:	a4 00 00 00 00 00       	b.jal      9bb <___ieee754_y1+0x308>
 9c1:	04 a3                   	b.mov      r5,r3
 9c3:	04 c4                   	b.mov      r6,r4
 9c5:	04 6b                   	b.mov      r3,r11
 9c7:	04 8c                   	b.mov      r4,r12
 9c9:	a4 00 00 00 00 00       	b.jal      9c9 <___ieee754_y1+0x316>
 9cf:	98 a0 b0 a6 29 fc       	b.ori      r5,r0,0x3f94650d
 9d5:	98 c0 0f 95 b2 fc       	b.ori      r6,r0,0x3f4da9f0
 9db:	a4 00 00 00 00 00       	b.jal      9db <___ieee754_y1+0x328>
 9e1:	04 a3                   	b.mov      r5,r3
 9e3:	04 c4                   	b.mov      r6,r4
 9e5:	04 6b                   	b.mov      r3,r11
 9e7:	04 8c                   	b.mov      r4,r12
 9e9:	a4 00 00 00 00 00       	b.jal      9e9 <___ieee754_y1+0x336>
 9ef:	98 a0 00 00 0f fc       	b.ori      r5,r0,0x3ff00000
 9f5:	00 c0                   	b.movi     r6,0x0
 9f7:	a4 00 00 00 00 00       	b.jal      9f7 <___ieee754_y1+0x344>
 9fd:	04 a3                   	b.mov      r5,r3
 9ff:	04 c4                   	b.mov      r6,r4
 a01:	04 6d                   	b.mov      r3,r13
 a03:	04 8e                   	b.mov      r4,r14
 a05:	a4 00 00 00 00 00       	b.jal      a05 <___ieee754_y1+0x352>
 a0b:	04 a3                   	b.mov      r5,r3
 a0d:	04 c4                   	b.mov      r6,r4
 a0f:	30 ea 2d                	b.addi     r7,r10,0xffffffb4
 a12:	50 67 00                	b.mlwz     r3,0x0(r7),0x0
 a15:	a4 00 00 00 00 00       	b.jal      a15 <___ieee754_y1+0x362>
 a1b:	05 a3                   	b.mov      r13,r3
 a1d:	05 c4                   	b.mov      r14,r4
 a1f:	30 aa 3d                	b.addi     r5,r10,0xffffffbc
 a22:	50 65 00                	b.mlwz     r3,0x0(r5),0x0
 a25:	30 ea 23                	b.addi     r7,r10,0xffffffc4
 a28:	50 a7 00                	b.mlwz     r5,0x0(r7),0x0
 a2b:	a4 00 00 00 00 00       	b.jal      a2b <___ieee754_y1+0x378>
 a31:	05 63                   	b.mov      r11,r3
 a33:	05 84                   	b.mov      r12,r4
 a35:	98 60 00 00 0f fd       	b.ori      r3,r0,0xbff00000
 a3b:	00 80                   	b.movi     r4,0x0
 a3d:	30 ea 2d                	b.addi     r7,r10,0xffffffb4
 a40:	50 a7 00                	b.mlwz     r5,0x0(r7),0x0
 a43:	a4 00 00 00 00 00       	b.jal      a43 <___ieee754_y1+0x390>
 a49:	04 a3                   	b.mov      r5,r3
 a4b:	04 c4                   	b.mov      r6,r4
 a4d:	04 6b                   	b.mov      r3,r11
 a4f:	04 8c                   	b.mov      r4,r12
 a51:	a4 00 00 00 00 00       	b.jal      a51 <___ieee754_y1+0x39e>
 a57:	98 a0 0c fa 27 fc       	b.ori      r5,r0,0x3fe45f30
 a5d:	98 c0 c1 13 93 b6       	b.ori      r6,r0,0x6dc9c883
 a63:	a4 00 00 00 00 00       	b.jal      a63 <___ieee754_y1+0x3b0>
 a69:	04 a3                   	b.mov      r5,r3
 a6b:	04 c4                   	b.mov      r6,r4
 a6d:	04 6d                   	b.mov      r3,r13
 a6f:	04 8e                   	b.mov      r4,r14
 a71:	a4 00 00 00 00 00       	b.jal      a71 <___ieee754_y1+0x3be>
 a77:	47 be 30                	b.reti     0x7,0xc

e_jn.o:     file format elf32-ba

Disassembly of section .text:

00000000 <___ieee754_yn>:
   0:	47 ae 60                	b.entri    0x7,0x6
   3:	31 41 2c                	b.addi     r10,r1,0x34
   6:	05 e3                   	b.mov      r15,r3
   8:	05 a4                   	b.mov      r13,r4
   a:	05 c5                   	b.mov      r14,r5
   c:	05 05                   	b.mov      r8,r5
   e:	94 a4 ff ff ff fe       	b.andi     r5,r4,0x7fffffff
  14:	60 e0 75                	b.sub      r7,r0,r14
  17:	60 ee 39                	b.or       r7,r14,r7
  1a:	6c e7 f9                	b.srli     r7,r7,0x1f
  1d:	60 e5 39                	b.or       r7,r5,r7
  20:	98 40 00 00 0f fe       	b.ori      r2,r0,0x7ff00000
  26:	d3 84 72 80             	b.bgeu     r2,r7,3a <___ieee754_yn+0x3a>
  2a:	04 6d                   	b.mov      r3,r13
  2c:	04 8e                   	b.mov      r4,r14
  2e:	04 ad                   	b.mov      r5,r13
  30:	04 ce                   	b.mov      r6,r14
  32:	a4 00 00 00 00 00       	b.jal      32 <___ieee754_yn+0x32>
  38:	0d 60                   	b.j        52 <___ieee754_yn+0x52>
  3a:	60 e5 71                	b.or       r7,r5,r14
  3d:	41 07 d8                	b.bnei     r7,0x0,58 <___ieee754_yn+0x58>
  40:	98 60 00 00 0f fd       	b.ori      r3,r0,0xbff00000
  46:	00 80                   	b.movi     r4,0x0
  48:	00 a0                   	b.movi     r5,0x0
  4a:	00 c0                   	b.movi     r6,0x0
  4c:	a4 00 00 00 00 00       	b.jal      4c <___ieee754_yn+0x4c>
  52:	05 63                   	b.mov      r11,r3
  54:	05 84                   	b.mov      r12,r4
  56:	0d de                   	b.j        244 <___ieee754_yn+0x244>
  58:	42 04 b0                	b.bgesi    r4,0x0,65 <___ieee754_yn+0x65>
  5b:	00 60                   	b.movi     r3,0x0
  5d:	00 80                   	b.movi     r4,0x0
  5f:	04 a3                   	b.mov      r5,r3
  61:	04 c4                   	b.mov      r6,r4
  63:	0e 5f                   	b.j        4c <___ieee754_yn+0x4c>
  65:	00 c8                   	b.movi     r6,0x1
  67:	cc ca 1b ff             	b.sw       0xffffffd8(r10),r6
  6b:	42 03 c8                	b.bgesi    r3,0x0,7e <___ieee754_yn+0x7e>
  6e:	61 e0 1d                	b.sub      r15,r0,r3
  71:	34 ef 80                	b.andi     r7,r15,0x1
  74:	6c e7 80                	b.slli     r7,r7,0x1
  77:	60 c6 3d                	b.sub      r6,r6,r7
  7a:	cc ca 1b ff             	b.sw       0xffffffd8(r10),r6
  7e:	41 0f 08                	b.bnei     r15,0x0,8e <___ieee754_yn+0x8e>
  81:	04 6d                   	b.mov      r3,r13
  83:	04 8e                   	b.mov      r4,r14
  85:	47 ce 60                	b.rtnei    0x7,0x6
  88:	a4 40 00 00 00 00       	b.j        88 <___ieee754_yn+0x88>
  8e:	41 8f e4                	b.bnei     r15,0x1,b5 <___ieee754_yn+0xb5>
  91:	04 6d                   	b.mov      r3,r13
  93:	04 8e                   	b.mov      r4,r14
  95:	a4 00 00 00 00 00       	b.jal      95 <___ieee754_yn+0x95>
  9b:	05 63                   	b.mov      r11,r3
  9d:	05 84                   	b.mov      r12,r4
  9f:	cc 6a 5b ff             	b.lwz      r3,0xffffffd8(r10)
  a3:	a4 00 00 00 00 00       	b.jal      a3 <___ieee754_yn+0xa3>
  a9:	04 ab                   	b.mov      r5,r11
  ab:	04 cc                   	b.mov      r6,r12
  ad:	a4 00 00 00 00 00       	b.jal      ad <___ieee754_yn+0xad>
  b3:	0f e7                   	b.j        52 <___ieee754_yn+0x52>
  b5:	01 60                   	b.movi     r11,0x0
  b7:	01 80                   	b.movi     r12,0x0
  b9:	98 e0 00 00 0f fe       	b.ori      r7,r0,0x7ff00000
  bf:	d2 8a 7a 18             	b.beq      r5,r7,244 <___ieee754_yn+0x244>
  c3:	98 40 ff ff f3 4a       	b.ori      r2,r0,0x52cfffff
  c9:	d3 04 5f 70             	b.bges     r2,r5,1b8 <___ieee754_yn+0x1b8>
  cd:	34 6f c0                	b.andi     r3,r15,0x3
  d0:	40 83 74                	b.beqi     r3,0x1,fe <___ieee754_yn+0xfe>
  d3:	43 83 10                	b.bgtsi    r3,0x1,db <___ieee754_yn+0xdb>
  d6:	40 03 70                	b.beqi     r3,0x0,e4 <___ieee754_yn+0xe4>
  d9:	0f 64                   	b.j        174 <___ieee754_yn+0x174>
  db:	40 43 e2                	b.beqi     r3,0x2,122 <___ieee754_yn+0x122>
  de:	d0 70 36 90             	b.bnei     r3,0x3,174 <___ieee754_yn+0x174>
  e2:	0c 58                   	b.j        14a <___ieee754_yn+0x14a>
  e4:	04 6d                   	b.mov      r3,r13
  e6:	04 8e                   	b.mov      r4,r14
  e8:	a4 00 00 00 00 00       	b.jal      e8 <___ieee754_yn+0xe8>
  ee:	05 63                   	b.mov      r11,r3
  f0:	05 84                   	b.mov      r12,r4
  f2:	04 6d                   	b.mov      r3,r13
  f4:	04 8e                   	b.mov      r4,r14
  f6:	a4 00 00 00 00 00       	b.jal      f6 <___ieee754_yn+0xf6>
  fc:	0d f0                   	b.j        13a <___ieee754_yn+0x13a>
  fe:	04 6d                   	b.mov      r3,r13
 100:	04 8e                   	b.mov      r4,r14
 102:	a4 00 00 00 00 00       	b.jal      102 <___ieee754_yn+0x102>
 108:	05 63                   	b.mov      r11,r3
 10a:	05 84                   	b.mov      r12,r4
 10c:	04 6d                   	b.mov      r3,r13
 10e:	04 8e                   	b.mov      r4,r14
 110:	a4 00 00 00 00 00       	b.jal      110 <___ieee754_yn+0x110>
 116:	04 a3                   	b.mov      r5,r3
 118:	04 c4                   	b.mov      r6,r4
 11a:	91 6b 00 00 00 01       	b.addi     r11,r11,0x80000000
 120:	0d e0                   	b.j        13e <___ieee754_yn+0x13e>
 122:	04 6d                   	b.mov      r3,r13
 124:	04 8e                   	b.mov      r4,r14
 126:	a4 00 00 00 00 00       	b.jal      126 <___ieee754_yn+0x126>
 12c:	05 63                   	b.mov      r11,r3
 12e:	05 84                   	b.mov      r12,r4
 130:	04 6d                   	b.mov      r3,r13
 132:	04 8e                   	b.mov      r4,r14
 134:	a4 00 00 00 00 00       	b.jal      134 <___ieee754_yn+0x134>
 13a:	04 a3                   	b.mov      r5,r3
 13c:	04 c4                   	b.mov      r6,r4
 13e:	04 6b                   	b.mov      r3,r11
 140:	04 8c                   	b.mov      r4,r12
 142:	a4 00 00 00 00 00       	b.jal      142 <___ieee754_yn+0x142>
 148:	0c 50                   	b.j        170 <___ieee754_yn+0x170>
 14a:	04 6d                   	b.mov      r3,r13
 14c:	04 8e                   	b.mov      r4,r14
 14e:	a4 00 00 00 00 00       	b.jal      14e <___ieee754_yn+0x14e>
 154:	05 63                   	b.mov      r11,r3
 156:	05 84                   	b.mov      r12,r4
 158:	04 6d                   	b.mov      r3,r13
 15a:	04 8e                   	b.mov      r4,r14
 15c:	a4 00 00 00 00 00       	b.jal      15c <___ieee754_yn+0x15c>
 162:	04 a3                   	b.mov      r5,r3
 164:	04 c4                   	b.mov      r6,r4
 166:	04 6b                   	b.mov      r3,r11
 168:	04 8c                   	b.mov      r4,r12
 16a:	a4 00 00 00 00 00       	b.jal      16a <___ieee754_yn+0x16a>
 170:	04 e3                   	b.mov      r7,r3
 172:	05 04                   	b.mov      r8,r4
 174:	04 6d                   	b.mov      r3,r13
 176:	04 8e                   	b.mov      r4,r14
 178:	cc ea 0b ff             	b.sw       0xffffffd0(r10),r7
 17c:	cd 0a 33 ff             	b.sw       0xffffffcc(r10),r8
 180:	a4 00 00 00 00 00       	b.jal      180 <___ieee754_yn+0x180>
 186:	05 63                   	b.mov      r11,r3
 188:	05 84                   	b.mov      r12,r4
 18a:	cc ea 4b ff             	b.lwz      r7,0xffffffd0(r10)
 18e:	cd 0a 73 ff             	b.lwz      r8,0xffffffcc(r10)
 192:	04 67                   	b.mov      r3,r7
 194:	04 88                   	b.mov      r4,r8
 196:	98 a0 eb b0 47 fc       	b.ori      r5,r0,0x3fe20dd7
 19c:	98 c0 b6 d9 42 0a       	b.ori      r6,r0,0x50429b6d
 1a2:	a4 00 00 00 00 00       	b.jal      1a2 <___ieee754_yn+0x1a2>
 1a8:	04 ab                   	b.mov      r5,r11
 1aa:	04 cc                   	b.mov      r6,r12
 1ac:	a4 00 00 00 00 00       	b.jal      1ac <___ieee754_yn+0x1ac>
 1b2:	05 63                   	b.mov      r11,r3
 1b4:	05 84                   	b.mov      r12,r4
 1b6:	0f f8                   	b.j        235 <___ieee754_yn+0x235>
 1b8:	04 6d                   	b.mov      r3,r13
 1ba:	04 8e                   	b.mov      r4,r14
 1bc:	a4 00 00 00 00 00       	b.jal      1bc <___ieee754_yn+0x1bc>
 1c2:	30 ca 3b                	b.addi     r6,r10,0xffffffdc
 1c5:	54 66 00                	b.msw      0x0(r6),r3,0x0
 1c8:	04 6d                   	b.mov      r3,r13
 1ca:	04 8e                   	b.mov      r4,r14
 1cc:	a4 00 00 00 00 00       	b.jal      1cc <___ieee754_yn+0x1cc>
 1d2:	05 63                   	b.mov      r11,r3
 1d4:	05 84                   	b.mov      r12,r4
 1d6:	04 eb                   	b.mov      r7,r11
 1d8:	00 48                   	b.movi     r2,0x1
 1da:	cc 4a 2b ff             	b.sw       0xffffffd4(r10),r2
 1de:	0e 88                   	b.j        223 <___ieee754_yn+0x223>
 1e0:	cc ca 6b ff             	b.lwz      r6,0xffffffd4(r10)
 1e4:	6c 66 80                	b.slli     r3,r6,0x1
 1e7:	a4 00 00 00 00 00       	b.jal      1e7 <___ieee754_yn+0x1e7>
 1ed:	04 ad                   	b.mov      r5,r13
 1ef:	04 ce                   	b.mov      r6,r14
 1f1:	a4 00 00 00 00 00       	b.jal      1f1 <___ieee754_yn+0x1f1>
 1f7:	04 ab                   	b.mov      r5,r11
 1f9:	04 cc                   	b.mov      r6,r12
 1fb:	a4 00 00 00 00 00       	b.jal      1fb <___ieee754_yn+0x1fb>
 201:	30 ea 3b                	b.addi     r7,r10,0xffffffdc
 204:	50 a7 00                	b.mlwz     r5,0x0(r7),0x0
 207:	a4 00 00 00 00 00       	b.jal      207 <___ieee754_yn+0x207>
 20d:	04 e3                   	b.mov      r7,r3
 20f:	cc 4a 6b ff             	b.lwz      r2,0xffffffd4(r10)
 213:	00 58                   	b.addi     r2,r2,0x1
 215:	cc 4a 2b ff             	b.sw       0xffffffd4(r10),r2
 219:	30 ca 3b                	b.addi     r6,r10,0xffffffdc
 21c:	55 66 00                	b.msw      0x0(r6),r11,0x0
 21f:	05 63                   	b.mov      r11,r3
 221:	05 84                   	b.mov      r12,r4
 223:	cc 4a 6b ff             	b.lwz      r2,0xffffffd4(r10)
 227:	d3 04 f7 00             	b.bges     r2,r15,235 <___ieee754_yn+0x235>
 22b:	98 c0 00 00 0f ff       	b.ori      r6,r0,0xfff00000
 231:	d2 ce 6f 5f             	b.bne      r7,r6,1e0 <___ieee754_yn+0x1e0>
 235:	cc ea 5b ff             	b.lwz      r7,0xffffffd8(r10)
 239:	43 07 d0                	b.bgtsi    r7,0x0,244 <___ieee754_yn+0x244>
 23c:	90 eb 00 00 00 01       	b.addi     r7,r11,0x80000000
 242:	05 67                   	b.mov      r11,r7
 244:	04 6b                   	b.mov      r3,r11
 246:	04 8c                   	b.mov      r4,r12
 248:	47 be 60                	b.reti     0x7,0x6

0000024b <___ieee754_jn>:
 24b:	47 ae 68                	b.entri    0x7,0x16
 24e:	31 41 2e                	b.addi     r10,r1,0x74
 251:	cc 6a 09 ff             	b.sw       0xffffff90(r10),r3
 255:	04 64                   	b.mov      r3,r4
 257:	04 85                   	b.mov      r4,r5
 259:	cc 6a 05 ff             	b.sw       0xffffffa0(r10),r3
 25d:	05 65                   	b.mov      r11,r5
 25f:	95 83 ff ff ff fe       	b.andi     r12,r3,0x7fffffff
 265:	60 e0 2d                	b.sub      r7,r0,r5
 268:	60 e5 39                	b.or       r7,r5,r7
 26b:	6c e7 f9                	b.srli     r7,r7,0x1f
 26e:	60 ec 39                	b.or       r7,r12,r7
 271:	98 c0 00 00 0f fe       	b.ori      r6,r0,0x7ff00000
 277:	d3 8c 7a 80             	b.bgeu     r6,r7,28c <___ieee754_jn+0x41>
 27b:	04 a3                   	b.mov      r5,r3
 27d:	04 c4                   	b.mov      r6,r4
 27f:	a4 00 00 00 00 00       	b.jal      27f <___ieee754_jn+0x34>
 285:	05 63                   	b.mov      r11,r3
 287:	05 84                   	b.mov      r12,r4
 289:	46 1a a0                	b.j        7e1 <___ieee754_jn+0x596>
 28c:	cc ea 49 ff             	b.lwz      r7,0xffffff90(r10)
 290:	42 07 44                	b.bgesi    r7,0x0,2b2 <___ieee754_jn+0x67>
 293:	60 e0 3d                	b.sub      r7,r0,r7
 296:	cc ea 09 ff             	b.sw       0xffffff90(r10),r7
 29a:	90 e3 00 00 00 01       	b.addi     r7,r3,0x80000000
 2a0:	04 67                   	b.mov      r3,r7
 2a2:	04 85                   	b.mov      r4,r5
 2a4:	cd 0a 45 ff             	b.lwz      r8,0xffffffa0(r10)
 2a8:	91 08 00 00 00 01       	b.addi     r8,r8,0x80000000
 2ae:	cd 0a 05 ff             	b.sw       0xffffffa0(r10),r8
 2b2:	cc ca 49 ff             	b.lwz      r6,0xffffff90(r10)
 2b6:	41 06 30                	b.bnei     r6,0x0,2c2 <___ieee754_jn+0x77>
 2b9:	47 ce 68                	b.rtnei    0x7,0x16
 2bc:	a4 40 00 00 00 00       	b.j        2bc <___ieee754_jn+0x71>
 2c2:	cc ea 49 ff             	b.lwz      r7,0xffffff90(r10)
 2c6:	41 87 30                	b.bnei     r7,0x1,2d2 <___ieee754_jn+0x87>
 2c9:	47 ce 68                	b.rtnei    0x7,0x16
 2cc:	a4 40 00 00 00 00       	b.j        2cc <___ieee754_jn+0x81>
 2d2:	a4 00 00 00 00 00       	b.jal      2d2 <___ieee754_jn+0x87>
 2d8:	31 0a 33                	b.addi     r8,r10,0xffffffcc
 2db:	54 68 00                	b.msw      0x0(r8),r3,0x0
 2de:	60 ec 59                	b.or       r7,r12,r11
 2e1:	d0 00 7c 72             	b.beqi     r7,0x0,7c4 <___ieee754_jn+0x579>
 2e5:	98 c0 ff ff f7 fe       	b.ori      r6,r0,0x7fefffff
 2eb:	d3 58 69 b2             	b.bgts     r12,r6,7c4 <___ieee754_jn+0x579>
 2ef:	cc 6a 49 ff             	b.lwz      r3,0xffffff90(r10)
 2f3:	a4 00 00 00 00 00       	b.jal      2f3 <___ieee754_jn+0xa8>
 2f9:	30 ea 29                	b.addi     r7,r10,0xffffff94
 2fc:	54 67 00                	b.msw      0x0(r7),r3,0x0
 2ff:	30 ea 33                	b.addi     r7,r10,0xffffffcc
 302:	50 a7 00                	b.mlwz     r5,0x0(r7),0x0
 305:	a4 00 00 00 00 00       	b.jal      305 <___ieee754_jn+0xba>
 30b:	d0 c0 3d a8             	b.bgtsi    r3,0x0,466 <___ieee754_jn+0x21b>
 30f:	99 00 ff ff f3 4a       	b.ori      r8,r0,0x52cfffff
 315:	d3 10 cd 70             	b.bges     r8,r12,400 <___ieee754_jn+0x1b5>
 319:	cc ca 49 ff             	b.lwz      r6,0xffffff90(r10)
 31d:	34 e6 c0                	b.andi     r7,r6,0x3
 320:	40 87 02                	b.beqi     r7,0x1,360 <___ieee754_jn+0x115>
 323:	43 87 10                	b.bgtsi    r7,0x1,32b <___ieee754_jn+0xe0>
 326:	40 07 70                	b.beqi     r7,0x0,334 <___ieee754_jn+0xe9>
 329:	0f 54                   	b.j        3d4 <___ieee754_jn+0x189>
 32b:	40 47 ca                	b.beqi     r7,0x2,37e <___ieee754_jn+0x133>
 32e:	d0 70 76 50             	b.bnei     r7,0x3,3d4 <___ieee754_jn+0x189>
 332:	0c b8                   	b.j        3a6 <___ieee754_jn+0x15b>
 334:	30 ea 33                	b.addi     r7,r10,0xffffffcc
 337:	50 67 00                	b.mlwz     r3,0x0(r7),0x0
 33a:	a4 00 00 00 00 00       	b.jal      33a <___ieee754_jn+0xef>
 340:	05 63                   	b.mov      r11,r3
 342:	05 84                   	b.mov      r12,r4
 344:	31 0a 33                	b.addi     r8,r10,0xffffffcc
 347:	50 68 00                	b.mlwz     r3,0x0(r8),0x0
 34a:	a4 00 00 00 00 00       	b.jal      34a <___ieee754_jn+0xff>
 350:	04 a3                   	b.mov      r5,r3
 352:	04 c4                   	b.mov      r6,r4
 354:	04 6b                   	b.mov      r3,r11
 356:	04 8c                   	b.mov      r4,r12
 358:	a4 00 00 00 00 00       	b.jal      358 <___ieee754_jn+0x10d>
 35e:	0d 38                   	b.j        3d0 <___ieee754_jn+0x185>
 360:	30 ca 33                	b.addi     r6,r10,0xffffffcc
 363:	50 66 00                	b.mlwz     r3,0x0(r6),0x0
 366:	a4 00 00 00 00 00       	b.jal      366 <___ieee754_jn+0x11b>
 36c:	05 63                   	b.mov      r11,r3
 36e:	05 84                   	b.mov      r12,r4
 370:	30 ea 33                	b.addi     r7,r10,0xffffffcc
 373:	50 67 00                	b.mlwz     r3,0x0(r7),0x0
 376:	a4 00 00 00 00 00       	b.jal      376 <___ieee754_jn+0x12b>
 37c:	0d 88                   	b.j        3c2 <___ieee754_jn+0x177>
 37e:	31 0a 33                	b.addi     r8,r10,0xffffffcc
 381:	50 68 00                	b.mlwz     r3,0x0(r8),0x0
 384:	a4 00 00 00 00 00       	b.jal      384 <___ieee754_jn+0x139>
 38a:	05 63                   	b.mov      r11,r3
 38c:	05 84                   	b.mov      r12,r4
 38e:	30 ca 33                	b.addi     r6,r10,0xffffffcc
 391:	50 66 00                	b.mlwz     r3,0x0(r6),0x0
 394:	a4 00 00 00 00 00       	b.jal      394 <___ieee754_jn+0x149>
 39a:	04 a3                   	b.mov      r5,r3
 39c:	04 c4                   	b.mov      r6,r4
 39e:	91 6b 00 00 00 01       	b.addi     r11,r11,0x80000000
 3a4:	0d 10                   	b.j        3c6 <___ieee754_jn+0x17b>
 3a6:	30 ea 33                	b.addi     r7,r10,0xffffffcc
 3a9:	50 67 00                	b.mlwz     r3,0x0(r7),0x0
 3ac:	a4 00 00 00 00 00       	b.jal      3ac <___ieee754_jn+0x161>
 3b2:	05 63                   	b.mov      r11,r3
 3b4:	05 84                   	b.mov      r12,r4
 3b6:	31 0a 33                	b.addi     r8,r10,0xffffffcc
 3b9:	50 68 00                	b.mlwz     r3,0x0(r8),0x0
 3bc:	a4 00 00 00 00 00       	b.jal      3bc <___ieee754_jn+0x171>
 3c2:	04 a3                   	b.mov      r5,r3
 3c4:	04 c4                   	b.mov      r6,r4
 3c6:	04 6b                   	b.mov      r3,r11
 3c8:	04 8c                   	b.mov      r4,r12
 3ca:	a4 00 00 00 00 00       	b.jal      3ca <___ieee754_jn+0x17f>
 3d0:	05 a3                   	b.mov      r13,r3
 3d2:	05 c4                   	b.mov      r14,r4
 3d4:	30 ca 33                	b.addi     r6,r10,0xffffffcc
 3d7:	50 66 00                	b.mlwz     r3,0x0(r6),0x0
 3da:	a4 00 00 00 00 00       	b.jal      3da <___ieee754_jn+0x18f>
 3e0:	05 63                   	b.mov      r11,r3
 3e2:	05 84                   	b.mov      r12,r4
 3e4:	04 6d                   	b.mov      r3,r13
 3e6:	04 8e                   	b.mov      r4,r14
 3e8:	98 a0 eb b0 47 fc       	b.ori      r5,r0,0x3fe20dd7
 3ee:	98 c0 b6 d9 42 0a       	b.ori      r6,r0,0x50429b6d
 3f4:	a4 00 00 00 00 00       	b.jal      3f4 <___ieee754_jn+0x1a9>
 3fa:	04 ab                   	b.mov      r5,r11
 3fc:	04 cc                   	b.mov      r6,r12
 3fe:	0d 5c                   	b.j        4e8 <___ieee754_jn+0x29d>
 400:	30 ea 33                	b.addi     r7,r10,0xffffffcc
 403:	50 67 00                	b.mlwz     r3,0x0(r7),0x0
 406:	a4 00 00 00 00 00       	b.jal      406 <___ieee754_jn+0x1bb>
 40c:	05 a3                   	b.mov      r13,r3
 40e:	05 c4                   	b.mov      r14,r4
 410:	31 0a 33                	b.addi     r8,r10,0xffffffcc
 413:	50 68 00                	b.mlwz     r3,0x0(r8),0x0
 416:	a4 00 00 00 00 00       	b.jal      416 <___ieee754_jn+0x1cb>
 41c:	05 63                   	b.mov      r11,r3
 41e:	05 84                   	b.mov      r12,r4
 420:	01 e8                   	b.movi     r15,0x1
 422:	0e 70                   	b.j        45b <___ieee754_jn+0x210>
 424:	6c 6f 80                	b.slli     r3,r15,0x1
 427:	a4 00 00 00 00 00       	b.jal      427 <___ieee754_jn+0x1dc>
 42d:	30 ea 33                	b.addi     r7,r10,0xffffffcc
 430:	50 a7 00                	b.mlwz     r5,0x0(r7),0x0
 433:	a4 00 00 00 00 00       	b.jal      433 <___ieee754_jn+0x1e8>
 439:	04 a3                   	b.mov      r5,r3
 43b:	04 c4                   	b.mov      r6,r4
 43d:	04 6b                   	b.mov      r3,r11
 43f:	04 8c                   	b.mov      r4,r12
 441:	a4 00 00 00 00 00       	b.jal      441 <___ieee754_jn+0x1f6>
 447:	04 ad                   	b.mov      r5,r13
 449:	04 ce                   	b.mov      r6,r14
 44b:	a4 00 00 00 00 00       	b.jal      44b <___ieee754_jn+0x200>
 451:	01 f8                   	b.addi     r15,r15,0x1
 453:	05 ab                   	b.mov      r13,r11
 455:	05 cc                   	b.mov      r14,r12
 457:	05 63                   	b.mov      r11,r3
 459:	05 84                   	b.mov      r12,r4
 45b:	cd 0a 49 ff             	b.lwz      r8,0xffffff90(r10)
 45f:	d3 50 fa 3f             	b.bgts     r8,r15,424 <___ieee754_jn+0x1d9>
 463:	46 a6 c0                	b.j        7c8 <___ieee754_jn+0x57d>
 466:	98 c0 ff ff f0 7c       	b.ori      r6,r0,0x3e0fffff
 46c:	d3 58 69 10             	b.bgts     r12,r6,4f5 <___ieee754_jn+0x2aa>
 470:	cc ea 49 ff             	b.lwz      r7,0xffffff90(r10)
 474:	39 00 84                	b.ori      r8,r0,0x21
 477:	d3 4e 8b 2c             	b.bgts     r7,r8,7c4 <___ieee754_jn+0x579>
 47b:	30 ca 33                	b.addi     r6,r10,0xffffffcc
 47e:	50 66 00                	b.mlwz     r3,0x0(r6),0x0
 481:	98 a0 00 00 07 fc       	b.ori      r5,r0,0x3fe00000
 487:	00 c0                   	b.movi     r6,0x0
 489:	a4 00 00 00 00 00       	b.jal      489 <___ieee754_jn+0x23e>
 48f:	05 63                   	b.mov      r11,r3
 491:	05 84                   	b.mov      r12,r4
 493:	30 ea 23                	b.addi     r7,r10,0xffffffc4
 496:	2d 67 00                	b.sw       0x0(r7),r11
 499:	2c 87 20                	b.sw       0x4(r7),r4
 49c:	01 e4                   	b.movi     r15,0x2
 49e:	99 a0 00 00 0f fc       	b.ori      r13,r0,0x3ff00000
 4a4:	01 c0                   	b.movi     r14,0x0
 4a6:	0d 30                   	b.j        4d8 <___ieee754_jn+0x28d>
 4a8:	04 6f                   	b.mov      r3,r15
 4aa:	a4 00 00 00 00 00       	b.jal      4aa <___ieee754_jn+0x25f>
 4b0:	04 a3                   	b.mov      r5,r3
 4b2:	04 c4                   	b.mov      r6,r4
 4b4:	04 6d                   	b.mov      r3,r13
 4b6:	04 8e                   	b.mov      r4,r14
 4b8:	a4 00 00 00 00 00       	b.jal      4b8 <___ieee754_jn+0x26d>
 4be:	05 a3                   	b.mov      r13,r3
 4c0:	05 c4                   	b.mov      r14,r4
 4c2:	04 6b                   	b.mov      r3,r11
 4c4:	04 8c                   	b.mov      r4,r12
 4c6:	31 0a 23                	b.addi     r8,r10,0xffffffc4
 4c9:	50 a8 00                	b.mlwz     r5,0x0(r8),0x0
 4cc:	a4 00 00 00 00 00       	b.jal      4cc <___ieee754_jn+0x281>
 4d2:	05 63                   	b.mov      r11,r3
 4d4:	05 84                   	b.mov      r12,r4
 4d6:	01 f8                   	b.addi     r15,r15,0x1
 4d8:	cc ca 49 ff             	b.lwz      r6,0xffffff90(r10)
 4dc:	d3 0c f3 3f             	b.bges     r6,r15,4a8 <___ieee754_jn+0x25d>
 4e0:	04 6b                   	b.mov      r3,r11
 4e2:	04 8c                   	b.mov      r4,r12
 4e4:	04 ad                   	b.mov      r5,r13
 4e6:	04 ce                   	b.mov      r6,r14
 4e8:	a4 00 00 00 00 00       	b.jal      4e8 <___ieee754_jn+0x29d>
 4ee:	05 63                   	b.mov      r11,r3
 4f0:	05 84                   	b.mov      r12,r4
 4f2:	46 6b 40                	b.j        7c8 <___ieee754_jn+0x57d>
 4f5:	cc ea 49 ff             	b.lwz      r7,0xffffff90(r10)
 4f9:	6c e7 80                	b.slli     r7,r7,0x1
 4fc:	cc ea 39 ff             	b.sw       0xffffff9c(r10),r7
 500:	04 67                   	b.mov      r3,r7
 502:	a4 00 00 00 00 00       	b.jal      502 <___ieee754_jn+0x2b7>
 508:	31 0a 33                	b.addi     r8,r10,0xffffffcc
 50b:	50 a8 00                	b.mlwz     r5,0x0(r8),0x0
 50e:	a4 00 00 00 00 00       	b.jal      50e <___ieee754_jn+0x2c3>
 514:	05 63                   	b.mov      r11,r3
 516:	05 84                   	b.mov      r12,r4
 518:	98 60 00 00 00 02       	b.ori      r3,r0,0x40000000
 51e:	00 80                   	b.movi     r4,0x0
 520:	30 ea 33                	b.addi     r7,r10,0xffffffcc
 523:	50 a7 00                	b.mlwz     r5,0x0(r7),0x0
 526:	a4 00 00 00 00 00       	b.jal      526 <___ieee754_jn+0x2db>
 52c:	31 0a 2d                	b.addi     r8,r10,0xffffffb4
 52f:	54 68 00                	b.msw      0x0(r8),r3,0x0
 532:	04 6b                   	b.mov      r3,r11
 534:	04 8c                   	b.mov      r4,r12
 536:	50 a8 00                	b.mlwz     r5,0x0(r8),0x0
 539:	a4 00 00 00 00 00       	b.jal      539 <___ieee754_jn+0x2ee>
 53f:	31 0a 25                	b.addi     r8,r10,0xffffffa4
 542:	54 68 00                	b.msw      0x0(r8),r3,0x0
 545:	04 6b                   	b.mov      r3,r11
 547:	04 8c                   	b.mov      r4,r12
 549:	50 a8 00                	b.mlwz     r5,0x0(r8),0x0
 54c:	a4 00 00 00 00 00       	b.jal      54c <___ieee754_jn+0x301>
 552:	98 a0 00 00 0f fc       	b.ori      r5,r0,0x3ff00000
 558:	00 c0                   	b.movi     r6,0x0
 55a:	a4 00 00 00 00 00       	b.jal      55a <___ieee754_jn+0x30f>
 560:	05 a3                   	b.mov      r13,r3
 562:	05 c4                   	b.mov      r14,r4
 564:	01 e8                   	b.movi     r15,0x1
 566:	0c 70                   	b.j        59e <___ieee754_jn+0x353>
 568:	01 f8                   	b.addi     r15,r15,0x1
 56a:	31 0a 25                	b.addi     r8,r10,0xffffffa4
 56d:	50 68 00                	b.mlwz     r3,0x0(r8),0x0
 570:	30 ea 2d                	b.addi     r7,r10,0xffffffb4
 573:	50 a7 00                	b.mlwz     r5,0x0(r7),0x0
 576:	a4 00 00 00 00 00       	b.jal      576 <___ieee754_jn+0x32b>
 57c:	31 0a 25                	b.addi     r8,r10,0xffffffa4
 57f:	54 68 00                	b.msw      0x0(r8),r3,0x0
 582:	04 ad                   	b.mov      r5,r13
 584:	04 ce                   	b.mov      r6,r14
 586:	a4 00 00 00 00 00       	b.jal      586 <___ieee754_jn+0x33b>
 58c:	04 ab                   	b.mov      r5,r11
 58e:	04 cc                   	b.mov      r6,r12
 590:	a4 00 00 00 00 00       	b.jal      590 <___ieee754_jn+0x345>
 596:	05 6d                   	b.mov      r11,r13
 598:	05 8e                   	b.mov      r12,r14
 59a:	05 a3                   	b.mov      r13,r3
 59c:	05 c4                   	b.mov      r14,r4
 59e:	04 6d                   	b.mov      r3,r13
 5a0:	04 8e                   	b.mov      r4,r14
 5a2:	98 a0 a6 b3 b3 82       	b.ori      r5,r0,0x41cdcd65
 5a8:	00 c0                   	b.movi     r6,0x0
 5aa:	a4 00 00 00 00 00       	b.jal      5aa <___ieee754_jn+0x35f>
 5b0:	45 03 1d                	b.bltsi    r3,0x0,568 <___ieee754_jn+0x31d>
 5b3:	cc ea 49 ff             	b.lwz      r7,0xffffff90(r10)
 5b7:	08 ef                   	b.add      r7,r7,r15
 5b9:	6d 67 80                	b.slli     r11,r7,0x1
 5bc:	30 ea 35                	b.addi     r7,r10,0xffffffac
 5bf:	2c 07 00                	b.sw       0x0(r7),r0
 5c2:	2c 07 20                	b.sw       0x4(r7),r0
 5c5:	0c f0                   	b.j        601 <___ieee754_jn+0x3b6>
 5c7:	04 6b                   	b.mov      r3,r11
 5c9:	a4 00 00 00 00 00       	b.jal      5c9 <___ieee754_jn+0x37e>
 5cf:	31 0a 33                	b.addi     r8,r10,0xffffffcc
 5d2:	50 a8 00                	b.mlwz     r5,0x0(r8),0x0
 5d5:	a4 00 00 00 00 00       	b.jal      5d5 <___ieee754_jn+0x38a>
 5db:	30 ea 35                	b.addi     r7,r10,0xffffffac
 5de:	50 a7 00                	b.mlwz     r5,0x0(r7),0x0
 5e1:	a4 00 00 00 00 00       	b.jal      5e1 <___ieee754_jn+0x396>
 5e7:	04 a3                   	b.mov      r5,r3
 5e9:	04 c4                   	b.mov      r6,r4
 5eb:	98 60 00 00 0f fc       	b.ori      r3,r0,0x3ff00000
 5f1:	00 80                   	b.movi     r4,0x0
 5f3:	a4 00 00 00 00 00       	b.jal      5f3 <___ieee754_jn+0x3a8>
 5f9:	31 0a 35                	b.addi     r8,r10,0xffffffac
 5fc:	54 68 00                	b.msw      0x0(r8),r3,0x0
 5ff:	01 77                   	b.addi     r11,r11,0xfffffffe
 601:	cc ca 79 ff             	b.lwz      r6,0xffffff9c(r10)
 605:	d3 16 64 3f             	b.bges     r11,r6,5c7 <___ieee754_jn+0x37c>
 609:	30 ea 2d                	b.addi     r7,r10,0xffffffb4
 60c:	50 67 00                	b.mlwz     r3,0x0(r7),0x0
 60f:	31 0a 29                	b.addi     r8,r10,0xffffff94
 612:	50 a8 00                	b.mlwz     r5,0x0(r8),0x0
 615:	a4 00 00 00 00 00       	b.jal      615 <___ieee754_jn+0x3ca>
 61b:	a4 00 00 00 00 00       	b.jal      61b <___ieee754_jn+0x3d0>
 621:	a4 00 00 00 00 00       	b.jal      621 <___ieee754_jn+0x3d6>
 627:	04 a3                   	b.mov      r5,r3
 629:	04 c4                   	b.mov      r6,r4
 62b:	30 ea 29                	b.addi     r7,r10,0xffffff94
 62e:	50 67 00                	b.mlwz     r3,0x0(r7),0x0
 631:	a4 00 00 00 00 00       	b.jal      631 <___ieee754_jn+0x3e6>
 637:	98 a0 42 74 61 02       	b.ori      r5,r0,0x40862e42
 63d:	98 c0 f7 9c 5f 7f       	b.ori      r6,r0,0xfefa39ef
 643:	a4 00 00 00 00 00       	b.jal      643 <___ieee754_jn+0x3f8>
 649:	cc ea 49 ff             	b.lwz      r7,0xffffff90(r10)
 64d:	00 ff                   	b.addi     r7,r7,0xffffffff
 64f:	d0 80 35 10             	b.bgesi    r3,0x0,6d9 <___ieee754_jn+0x48e>
 653:	05 e7                   	b.mov      r15,r7
 655:	6c 67 80                	b.slli     r3,r7,0x1
 658:	a4 00 00 00 00 00       	b.jal      658 <___ieee754_jn+0x40d>
 65e:	05 a3                   	b.mov      r13,r3
 660:	05 c4                   	b.mov      r14,r4
 662:	30 ca 35                	b.addi     r6,r10,0xffffffac
 665:	50 c6 00                	b.mlwz     r6,0x0(r6),0x0
 668:	31 0a 3b                	b.addi     r8,r10,0xffffffdc
 66b:	54 c8 00                	b.msw      0x0(r8),r6,0x0
 66e:	98 e0 00 00 0f fc       	b.ori      r7,r0,0x3ff00000
 674:	01 00                   	b.movi     r8,0x0
 676:	30 ca 3d                	b.addi     r6,r10,0xffffffbc
 679:	54 e6 00                	b.msw      0x0(r6),r7,0x0
 67c:	0c 68                   	b.j        6d4 <___ieee754_jn+0x489>
 67e:	30 ea 3d                	b.addi     r7,r10,0xffffffbc
 681:	50 67 00                	b.mlwz     r3,0x0(r7),0x0
 684:	04 ad                   	b.mov      r5,r13
 686:	04 ce                   	b.mov      r6,r14
 688:	a4 00 00 00 00 00       	b.jal      688 <___ieee754_jn+0x43d>
 68e:	31 0a 33                	b.addi     r8,r10,0xffffffcc
 691:	50 a8 00                	b.mlwz     r5,0x0(r8),0x0
 694:	a4 00 00 00 00 00       	b.jal      694 <___ieee754_jn+0x449>
 69a:	30 ea 3b                	b.addi     r7,r10,0xffffffdc
 69d:	50 a7 00                	b.mlwz     r5,0x0(r7),0x0
 6a0:	a4 00 00 00 00 00       	b.jal      6a0 <___ieee754_jn+0x455>
 6a6:	05 63                   	b.mov      r11,r3
 6a8:	05 84                   	b.mov      r12,r4
 6aa:	04 6d                   	b.mov      r3,r13
 6ac:	04 8e                   	b.mov      r4,r14
 6ae:	98 a0 00 00 00 02       	b.ori      r5,r0,0x40000000
 6b4:	00 c0                   	b.movi     r6,0x0
 6b6:	a4 00 00 00 00 00       	b.jal      6b6 <___ieee754_jn+0x46b>
 6bc:	05 a3                   	b.mov      r13,r3
 6be:	05 c4                   	b.mov      r14,r4
 6c0:	01 ff                   	b.addi     r15,r15,0xffffffff
 6c2:	30 ca 3d                	b.addi     r6,r10,0xffffffbc
 6c5:	50 c6 00                	b.mlwz     r6,0x0(r6),0x0
 6c8:	31 0a 3b                	b.addi     r8,r10,0xffffffdc
 6cb:	54 c8 00                	b.msw      0x0(r8),r6,0x0
 6ce:	30 ea 3d                	b.addi     r7,r10,0xffffffbc
 6d1:	55 67 00                	b.msw      0x0(r7),r11,0x0
 6d4:	43 0f 55                	b.bgtsi    r15,0x0,67e <___ieee754_jn+0x433>
 6d7:	0c 4c                   	b.j        79f <___ieee754_jn+0x554>
 6d9:	05 e7                   	b.mov      r15,r7
 6db:	6c 67 80                	b.slli     r3,r7,0x1
 6de:	a4 00 00 00 00 00       	b.jal      6de <___ieee754_jn+0x493>
 6e4:	31 0a 2b                	b.addi     r8,r10,0xffffffd4
 6e7:	54 68 00                	b.msw      0x0(r8),r3,0x0
 6ea:	30 ca 35                	b.addi     r6,r10,0xffffffac
 6ed:	51 a6 00                	b.mlwz     r13,0x0(r6),0x0
 6f0:	98 e0 00 00 0f fc       	b.ori      r7,r0,0x3ff00000
 6f6:	01 00                   	b.movi     r8,0x0
 6f8:	30 ca 3d                	b.addi     r6,r10,0xffffffbc
 6fb:	54 e6 00                	b.msw      0x0(r6),r7,0x0
 6fe:	0e e4                   	b.j        79b <___ieee754_jn+0x550>
 700:	30 ea 3d                	b.addi     r7,r10,0xffffffbc
 703:	50 67 00                	b.mlwz     r3,0x0(r7),0x0
 706:	31 0a 2b                	b.addi     r8,r10,0xffffffd4
 709:	50 a8 00                	b.mlwz     r5,0x0(r8),0x0
 70c:	a4 00 00 00 00 00       	b.jal      70c <___ieee754_jn+0x4c1>
 712:	30 ea 33                	b.addi     r7,r10,0xffffffcc
 715:	50 a7 00                	b.mlwz     r5,0x0(r7),0x0
 718:	a4 00 00 00 00 00       	b.jal      718 <___ieee754_jn+0x4cd>
 71e:	04 ad                   	b.mov      r5,r13
 720:	04 ce                   	b.mov      r6,r14
 722:	a4 00 00 00 00 00       	b.jal      722 <___ieee754_jn+0x4d7>
 728:	05 63                   	b.mov      r11,r3
 72a:	05 84                   	b.mov      r12,r4
 72c:	04 6b                   	b.mov      r3,r11
 72e:	98 a0 b5 92 4d 2a       	b.ori      r5,r0,0x54b249ad
 734:	98 c0 be c3 29 a4       	b.ori      r6,r0,0x2594c37d
 73a:	a4 00 00 00 00 00       	b.jal      73a <___ieee754_jn+0x4ef>
 740:	31 0a 3d                	b.addi     r8,r10,0xffffffbc
 743:	51 a8 00                	b.mlwz     r13,0x0(r8),0x0
 746:	44 03 cc                	b.blesi    r3,0x0,779 <___ieee754_jn+0x52e>
 749:	04 6d                   	b.mov      r3,r13
 74b:	04 8e                   	b.mov      r4,r14
 74d:	04 ab                   	b.mov      r5,r11
 74f:	04 cc                   	b.mov      r6,r12
 751:	a4 00 00 00 00 00       	b.jal      751 <___ieee754_jn+0x506>
 757:	05 a3                   	b.mov      r13,r3
 759:	05 c4                   	b.mov      r14,r4
 75b:	30 ea 35                	b.addi     r7,r10,0xffffffac
 75e:	50 67 00                	b.mlwz     r3,0x0(r7),0x0
 761:	04 ab                   	b.mov      r5,r11
 763:	04 cc                   	b.mov      r6,r12
 765:	a4 00 00 00 00 00       	b.jal      765 <___ieee754_jn+0x51a>
 76b:	31 0a 35                	b.addi     r8,r10,0xffffffac
 76e:	54 68 00                	b.msw      0x0(r8),r3,0x0
 771:	99 60 00 00 0f fc       	b.ori      r11,r0,0x3ff00000
 777:	01 80                   	b.movi     r12,0x0
 779:	30 ca 2b                	b.addi     r6,r10,0xffffffd4
 77c:	50 66 00                	b.mlwz     r3,0x0(r6),0x0
 77f:	98 a0 00 00 00 02       	b.ori      r5,r0,0x40000000
 785:	00 c0                   	b.movi     r6,0x0
 787:	a4 00 00 00 00 00       	b.jal      787 <___ieee754_jn+0x53c>
 78d:	30 ea 2b                	b.addi     r7,r10,0xffffffd4
 790:	54 67 00                	b.msw      0x0(r7),r3,0x0
 793:	01 ff                   	b.addi     r15,r15,0xffffffff
 795:	31 0a 3d                	b.addi     r8,r10,0xffffffbc
 798:	55 68 00                	b.msw      0x0(r8),r11,0x0
 79b:	d0 c0 fa 6f             	b.bgtsi    r15,0x0,700 <___ieee754_jn+0x4b5>
 79f:	30 ca 33                	b.addi     r6,r10,0xffffffcc
 7a2:	50 66 00                	b.mlwz     r3,0x0(r6),0x0
 7a5:	a4 00 00 00 00 00       	b.jal      7a5 <___ieee754_jn+0x55a>
 7ab:	04 a3                   	b.mov      r5,r3
 7ad:	04 c4                   	b.mov      r6,r4
 7af:	30 ea 35                	b.addi     r7,r10,0xffffffac
 7b2:	50 67 00                	b.mlwz     r3,0x0(r7),0x0
 7b5:	a4 00 00 00 00 00       	b.jal      7b5 <___ieee754_jn+0x56a>
 7bb:	31 0a 3d                	b.addi     r8,r10,0xffffffbc
 7be:	50 a8 00                	b.mlwz     r5,0x0(r8),0x0
 7c1:	46 e4 bf                	b.j        4e8 <___ieee754_jn+0x29d>
 7c4:	01 60                   	b.movi     r11,0x0
 7c6:	01 80                   	b.movi     r12,0x0
 7c8:	cc ca 45 ff             	b.lwz      r6,0xffffffa0(r10)
 7cc:	6c e6 f9                	b.srli     r7,r6,0x1f
 7cf:	cd 0a 49 ff             	b.lwz      r8,0xffffff90(r10)
 7d3:	60 e7 40                	b.and      r7,r7,r8
 7d6:	41 87 d0                	b.bnei     r7,0x1,7e1 <___ieee754_jn+0x596>
 7d9:	90 eb 00 00 00 01       	b.addi     r7,r11,0x80000000
 7df:	05 67                   	b.mov      r11,r7
 7e1:	04 6b                   	b.mov      r3,r11
 7e3:	04 8c                   	b.mov      r4,r12
 7e5:	47 be 68                	b.reti     0x7,0x16

e_log.o:     file format elf32-ba

Disassembly of section .text:

00000000 <___ieee754_log>:
   0:	47 ae 30                	b.entri    0x7,0xc
   3:	31 41 32                	b.addi     r10,r1,0x4c
   6:	05 63                   	b.mov      r11,r3
   8:	05 84                   	b.mov      r12,r4
   a:	04 c3                   	b.mov      r6,r3
   c:	00 e0                   	b.movi     r7,0x0
   e:	98 40 ff ff f0 00       	b.ori      r2,r0,0xfffff
  14:	d3 46 2d 20             	b.bgts     r3,r2,5f <___ieee754_log+0x5f>
  18:	94 e3 ff ff ff fe       	b.andi     r7,r3,0x7fffffff
  1e:	60 e7 21                	b.or       r7,r7,r4
  21:	41 07 b0                	b.bnei     r7,0x0,2e <___ieee754_log+0x2e>
  24:	98 60 00 00 0a c3       	b.ori      r3,r0,0xc3500000
  2a:	00 80                   	b.movi     r4,0x0
  2c:	0f c0                   	b.j        3b <___ieee754_log+0x3b>
  2e:	42 03 58                	b.bgesi    r3,0x0,48 <___ieee754_log+0x48>
  31:	04 a3                   	b.mov      r5,r3
  33:	04 c4                   	b.mov      r6,r4
  35:	a4 00 00 00 00 00       	b.jal      35 <___ieee754_log+0x35>
  3b:	00 a0                   	b.movi     r5,0x0
  3d:	00 c0                   	b.movi     r6,0x0
  3f:	a4 00 00 00 00 00       	b.jal      3f <___ieee754_log+0x3f>
  45:	46 a9 20                	b.j        4da <___ieee754_log+0x4da>
  48:	98 a0 00 00 0a c2       	b.ori      r5,r0,0x43500000
  4e:	00 c0                   	b.movi     r6,0x0
  50:	a4 00 00 00 00 00       	b.jal      50 <___ieee754_log+0x50>
  56:	05 63                   	b.mov      r11,r3
  58:	05 84                   	b.mov      r12,r4
  5a:	04 cb                   	b.mov      r6,r11
  5c:	30 e0 53                	b.addi     r7,r0,0xffffffca
  5f:	98 a0 ff ff f7 fe       	b.ori      r5,r0,0x7fefffff
  65:	d3 0a 67 00             	b.bges     r5,r6,73 <___ieee754_log+0x73>
  69:	04 6b                   	b.mov      r3,r11
  6b:	04 8c                   	b.mov      r4,r12
  6d:	04 ab                   	b.mov      r5,r11
  6f:	04 cc                   	b.mov      r6,r12
  71:	0f 74                   	b.j        12c <___ieee754_log+0x12c>
  73:	6c a6 2a                	b.srai     r5,r6,0x14
  76:	08 a7                   	b.add      r5,r5,r7
  78:	d8 a5 80 3f             	b.addi     r5,r5,0xfffffc01
  7c:	94 c6 ff ff f0 00       	b.andi     r6,r6,0xfffff
  82:	cc ca 07 ff             	b.sw       0xffffffe0(r10),r6
  86:	90 c6 26 fa 90 00       	b.addi     r6,r6,0x95f64
  8c:	94 c6 00 00 08 00       	b.andi     r6,r6,0x100000
  92:	04 8c                   	b.mov      r4,r12
  94:	98 e0 00 00 0f fc       	b.ori      r7,r0,0x3ff00000
  9a:	60 e6 3a                	b.xor      r7,r6,r7
  9d:	cc 4a 47 ff             	b.lwz      r2,0xffffffe0(r10)
  a1:	60 62 39                	b.or       r3,r2,r7
  a4:	6c c6 2a                	b.srai     r6,r6,0x14
  a7:	08 a6                   	b.add      r5,r5,r6
  a9:	cc aa 3b ff             	b.sw       0xffffffdc(r10),r5
  ad:	98 a0 00 00 0f fc       	b.ori      r5,r0,0x3ff00000
  b3:	00 c0                   	b.movi     r6,0x0
  b5:	a4 00 00 00 00 00       	b.jal      b5 <___ieee754_log+0xb5>
  bb:	30 aa 3d                	b.addi     r5,r10,0xffffffbc
  be:	54 65 00                	b.msw      0x0(r5),r3,0x0
  c1:	cc ea 47 ff             	b.lwz      r7,0xffffffe0(r10)
  c5:	00 f4                   	b.addi     r7,r7,0x2
  c7:	94 e7 ff ff f0 00       	b.andi     r7,r7,0xfffff
  cd:	d0 d0 7b 88             	b.bgtsi    r7,0x2,1ea <___ieee754_log+0x1ea>
  d1:	00 a0                   	b.movi     r5,0x0
  d3:	00 c0                   	b.movi     r6,0x0
  d5:	a4 00 00 00 00 00       	b.jal      d5 <___ieee754_log+0xd5>
  db:	41 03 5a                	b.bnei     r3,0x0,135 <___ieee754_log+0x135>
  de:	00 60                   	b.movi     r3,0x0
  e0:	00 80                   	b.movi     r4,0x0
  e2:	cc ea 7b ff             	b.lwz      r7,0xffffffdc(r10)
  e6:	d0 00 72 fc             	b.beqi     r7,0x0,4da <___ieee754_log+0x4da>
  ea:	04 67                   	b.mov      r3,r7
  ec:	a4 00 00 00 00 00       	b.jal      ec <___ieee754_log+0xec>
  f2:	05 63                   	b.mov      r11,r3
  f4:	05 84                   	b.mov      r12,r4
  f6:	04 6b                   	b.mov      r3,r11
  f8:	98 a0 42 74 67 fc       	b.ori      r5,r0,0x3fe62e42
  fe:	98 c0 00 00 07 7f       	b.ori      r6,r0,0xfee00000
 104:	a4 00 00 00 00 00       	b.jal      104 <___ieee754_log+0x104>
 10a:	05 a3                   	b.mov      r13,r3
 10c:	05 c4                   	b.mov      r14,r4
 10e:	04 6b                   	b.mov      r3,r11
 110:	04 8c                   	b.mov      r4,r12
 112:	98 a0 f7 9c 57 bc       	b.ori      r5,r0,0x3dea39ef
 118:	98 c0 6e 3c 9e ac       	b.ori      r6,r0,0x35793c76
 11e:	a4 00 00 00 00 00       	b.jal      11e <___ieee754_log+0x11e>
 124:	04 a3                   	b.mov      r5,r3
 126:	04 c4                   	b.mov      r6,r4
 128:	04 6d                   	b.mov      r3,r13
 12a:	04 8e                   	b.mov      r4,r14
 12c:	a4 00 00 00 00 00       	b.jal      12c <___ieee754_log+0x12c>
 132:	46 15 c0                	b.j        4da <___ieee754_log+0x4da>
 135:	30 4a 3d                	b.addi     r2,r10,0xffffffbc
 138:	50 62 00                	b.mlwz     r3,0x0(r2),0x0
 13b:	04 a3                   	b.mov      r5,r3
 13d:	04 c4                   	b.mov      r6,r4
 13f:	a4 00 00 00 00 00       	b.jal      13f <___ieee754_log+0x13f>
 145:	05 63                   	b.mov      r11,r3
 147:	05 84                   	b.mov      r12,r4
 149:	30 4a 3d                	b.addi     r2,r10,0xffffffbc
 14c:	50 62 00                	b.mlwz     r3,0x0(r2),0x0
 14f:	98 a0 aa aa ab fd       	b.ori      r5,r0,0xbfd55555
 155:	98 c0 aa aa aa aa       	b.ori      r6,r0,0x55555555
 15b:	a4 00 00 00 00 00       	b.jal      15b <___ieee754_log+0x15b>
 161:	98 a0 00 00 07 fc       	b.ori      r5,r0,0x3fe00000
 167:	00 c0                   	b.movi     r6,0x0
 169:	a4 00 00 00 00 00       	b.jal      169 <___ieee754_log+0x169>
 16f:	04 a3                   	b.mov      r5,r3
 171:	04 c4                   	b.mov      r6,r4
 173:	04 6b                   	b.mov      r3,r11
 175:	04 8c                   	b.mov      r4,r12
 177:	a4 00 00 00 00 00       	b.jal      177 <___ieee754_log+0x177>
 17d:	30 aa 2b                	b.addi     r5,r10,0xffffffd4
 180:	54 65 00                	b.msw      0x0(r5),r3,0x0
 183:	cc ca 7b ff             	b.lwz      r6,0xffffffdc(r10)
 187:	41 06 28                	b.bnei     r6,0x0,19b <___ieee754_log+0x19b>
 18a:	30 ea 3d                	b.addi     r7,r10,0xffffffbc
 18d:	50 67 00                	b.mlwz     r3,0x0(r7),0x0
 190:	04 45                   	b.mov      r2,r5
 192:	2c a5 40                	b.lwz      r5,0x0(r5)
 195:	2c c2 60                	b.lwz      r6,0x4(r2)
 198:	46 3c c0                	b.j        4d4 <___ieee754_log+0x4d4>
 19b:	cc 6a 7b ff             	b.lwz      r3,0xffffffdc(r10)
 19f:	a4 00 00 00 00 00       	b.jal      19f <___ieee754_log+0x19f>
 1a5:	05 63                   	b.mov      r11,r3
 1a7:	05 84                   	b.mov      r12,r4
 1a9:	04 6b                   	b.mov      r3,r11
 1ab:	98 a0 42 74 67 fc       	b.ori      r5,r0,0x3fe62e42
 1b1:	98 c0 00 00 07 7f       	b.ori      r6,r0,0xfee00000
 1b7:	a4 00 00 00 00 00       	b.jal      1b7 <___ieee754_log+0x1b7>
 1bd:	05 a3                   	b.mov      r13,r3
 1bf:	05 c4                   	b.mov      r14,r4
 1c1:	04 6b                   	b.mov      r3,r11
 1c3:	04 8c                   	b.mov      r4,r12
 1c5:	98 a0 f7 9c 57 bd       	b.ori      r5,r0,0xbdea39ef
 1cb:	98 c0 6e 3c 9e ac       	b.ori      r6,r0,0x35793c76
 1d1:	a4 00 00 00 00 00       	b.jal      1d1 <___ieee754_log+0x1d1>
 1d7:	04 a3                   	b.mov      r5,r3
 1d9:	04 c4                   	b.mov      r6,r4
 1db:	30 ea 2b                	b.addi     r7,r10,0xffffffd4
 1de:	50 67 00                	b.mlwz     r3,0x0(r7),0x0
 1e1:	a4 00 00 00 00 00       	b.jal      1e1 <___ieee754_log+0x1e1>
 1e7:	46 1c 40                	b.j        41f <___ieee754_log+0x41f>
 1ea:	30 aa 3d                	b.addi     r5,r10,0xffffffbc
 1ed:	50 65 00                	b.mlwz     r3,0x0(r5),0x0
 1f0:	98 a0 00 00 00 02       	b.ori      r5,r0,0x40000000
 1f6:	00 c0                   	b.movi     r6,0x0
 1f8:	a4 00 00 00 00 00       	b.jal      1f8 <___ieee754_log+0x1f8>
 1fe:	04 a3                   	b.mov      r5,r3
 200:	04 c4                   	b.mov      r6,r4
 202:	30 ea 3d                	b.addi     r7,r10,0xffffffbc
 205:	50 67 00                	b.mlwz     r3,0x0(r7),0x0
 208:	a4 00 00 00 00 00       	b.jal      208 <___ieee754_log+0x208>
 20e:	30 4a 23                	b.addi     r2,r10,0xffffffc4
 211:	54 62 00                	b.msw      0x0(r2),r3,0x0
 214:	cc 6a 7b ff             	b.lwz      r3,0xffffffdc(r10)
 218:	a4 00 00 00 00 00       	b.jal      218 <___ieee754_log+0x218>
 21e:	30 aa 33                	b.addi     r5,r10,0xffffffcc
 221:	54 65 00                	b.msw      0x0(r5),r3,0x0
 224:	30 ca 23                	b.addi     r6,r10,0xffffffc4
 227:	50 66 00                	b.mlwz     r3,0x0(r6),0x0
 22a:	04 a3                   	b.mov      r5,r3
 22c:	04 c4                   	b.mov      r6,r4
 22e:	a4 00 00 00 00 00       	b.jal      22e <___ieee754_log+0x22e>
 234:	05 a3                   	b.mov      r13,r3
 236:	05 c4                   	b.mov      r14,r4
 238:	cc 4a 47 ff             	b.lwz      r2,0xffffffe0(r10)
 23c:	91 e2 61 d7 9f ff       	b.addi     r15,r2,0xfff9eb86
 242:	04 6d                   	b.mov      r3,r13
 244:	04 ad                   	b.mov      r5,r13
 246:	04 ce                   	b.mov      r6,r14
 248:	a4 00 00 00 00 00       	b.jal      248 <___ieee754_log+0x248>
 24e:	05 63                   	b.mov      r11,r3
 250:	05 84                   	b.mov      r12,r4
 252:	04 6b                   	b.mov      r3,r11
 254:	98 a0 48 8f 43 fc       	b.ori      r5,r0,0x3fc2f112
 25a:	98 c0 22 4a 7c fb       	b.ori      r6,r0,0xdf3e5244
 260:	a4 00 00 00 00 00       	b.jal      260 <___ieee754_log+0x260>
 266:	98 a0 26 62 e3 fc       	b.ori      r5,r0,0x3fc74664
 26c:	98 c0 7b c0 d3 69       	b.ori      r6,r0,0x96cb03de
 272:	a4 00 00 00 00 00       	b.jal      272 <___ieee754_log+0x272>
 278:	04 a3                   	b.mov      r5,r3
 27a:	04 c4                   	b.mov      r6,r4
 27c:	04 6b                   	b.mov      r3,r11
 27e:	04 8c                   	b.mov      r4,r12
 280:	a4 00 00 00 00 00       	b.jal      280 <___ieee754_log+0x280>
 286:	98 a0 24 92 4b fc       	b.ori      r5,r0,0x3fd24924
 28c:	98 c0 9a c9 44 29       	b.ori      r6,r0,0x94229359
 292:	a4 00 00 00 00 00       	b.jal      292 <___ieee754_log+0x292>
 298:	04 a3                   	b.mov      r5,r3
 29a:	04 c4                   	b.mov      r6,r4
 29c:	04 6b                   	b.mov      r3,r11
 29e:	04 8c                   	b.mov      r4,r12
 2a0:	a4 00 00 00 00 00       	b.jal      2a0 <___ieee754_log+0x2a0>
 2a6:	98 a0 aa aa a7 fc       	b.ori      r5,r0,0x3fe55555
 2ac:	98 c0 c9 aa aa aa       	b.ori      r6,r0,0x55555593
 2b2:	a4 00 00 00 00 00       	b.jal      2b2 <___ieee754_log+0x2b2>
 2b8:	04 a3                   	b.mov      r5,r3
 2ba:	04 c4                   	b.mov      r6,r4
 2bc:	04 6d                   	b.mov      r3,r13
 2be:	04 8e                   	b.mov      r4,r14
 2c0:	a4 00 00 00 00 00       	b.jal      2c0 <___ieee754_log+0x2c0>
 2c6:	05 a3                   	b.mov      r13,r3
 2c8:	05 c4                   	b.mov      r14,r4
 2ca:	04 6b                   	b.mov      r3,r11
 2cc:	04 8c                   	b.mov      r4,r12
 2ce:	98 a0 90 59 c3 fc       	b.ori      r5,r0,0x3fc39a09
 2d4:	98 c0 f9 63 1e 0b       	b.ori      r6,r0,0xd078c69f
 2da:	a4 00 00 00 00 00       	b.jal      2da <___ieee754_log+0x2da>
 2e0:	98 a0 a3 8e 33 fc       	b.ori      r5,r0,0x3fcc71c5
 2e6:	98 c0 f5 1e 71 b8       	b.ori      r6,r0,0x1d8e78af
 2ec:	a4 00 00 00 00 00       	b.jal      2ec <___ieee754_log+0x2ec>
 2f2:	04 a3                   	b.mov      r5,r3
 2f4:	04 c4                   	b.mov      r6,r4
 2f6:	04 6b                   	b.mov      r3,r11
 2f8:	04 8c                   	b.mov      r4,r12
 2fa:	a4 00 00 00 00 00       	b.jal      2fa <___ieee754_log+0x2fa>
 300:	98 a0 99 99 9b fc       	b.ori      r5,r0,0x3fd99999
 306:	98 c0 20 5f e9 99       	b.ori      r6,r0,0x9997fa04
 30c:	a4 00 00 00 00 00       	b.jal      30c <___ieee754_log+0x30c>
 312:	04 a3                   	b.mov      r5,r3
 314:	04 c4                   	b.mov      r6,r4
 316:	04 6b                   	b.mov      r3,r11
 318:	04 8c                   	b.mov      r4,r12
 31a:	a4 00 00 00 00 00       	b.jal      31a <___ieee754_log+0x31a>
 320:	04 a3                   	b.mov      r5,r3
 322:	04 c4                   	b.mov      r6,r4
 324:	04 6d                   	b.mov      r3,r13
 326:	04 8e                   	b.mov      r4,r14
 328:	a4 00 00 00 00 00       	b.jal      328 <___ieee754_log+0x328>
 32e:	05 63                   	b.mov      r11,r3
 330:	05 84                   	b.mov      r12,r4
 332:	98 e0 8a 1d 60 00       	b.ori      r7,r0,0x6b851
 338:	cc aa 47 ff             	b.lwz      r5,0xffffffe0(r10)
 33c:	60 e7 2d                	b.sub      r7,r7,r5
 33f:	61 ef 39                	b.or       r15,r15,r7
 342:	d1 00 fa 70             	b.blesi    r15,0x0,427 <___ieee754_log+0x427>
 346:	30 ca 3d                	b.addi     r6,r10,0xffffffbc
 349:	50 66 00                	b.mlwz     r3,0x0(r6),0x0
 34c:	98 a0 00 00 07 fc       	b.ori      r5,r0,0x3fe00000
 352:	00 c0                   	b.movi     r6,0x0
 354:	a4 00 00 00 00 00       	b.jal      354 <___ieee754_log+0x354>
 35a:	30 ea 3d                	b.addi     r7,r10,0xffffffbc
 35d:	50 a7 00                	b.mlwz     r5,0x0(r7),0x0
 360:	a4 00 00 00 00 00       	b.jal      360 <___ieee754_log+0x360>
 366:	30 4a 2d                	b.addi     r2,r10,0xffffffb4
 369:	54 62 00                	b.msw      0x0(r2),r3,0x0
 36c:	cc aa 7b ff             	b.lwz      r5,0xffffffdc(r10)
 370:	41 05 9c                	b.bnei     r5,0x0,3a9 <___ieee754_log+0x3a9>
 373:	04 ab                   	b.mov      r5,r11
 375:	04 cc                   	b.mov      r6,r12
 377:	a4 00 00 00 00 00       	b.jal      377 <___ieee754_log+0x377>
 37d:	04 a3                   	b.mov      r5,r3
 37f:	04 c4                   	b.mov      r6,r4
 381:	30 ea 23                	b.addi     r7,r10,0xffffffc4
 384:	50 67 00                	b.mlwz     r3,0x0(r7),0x0
 387:	a4 00 00 00 00 00       	b.jal      387 <___ieee754_log+0x387>
 38d:	04 a3                   	b.mov      r5,r3
 38f:	04 c4                   	b.mov      r6,r4
 391:	30 4a 2d                	b.addi     r2,r10,0xffffffb4
 394:	50 62 00                	b.mlwz     r3,0x0(r2),0x0
 397:	a4 00 00 00 00 00       	b.jal      397 <___ieee754_log+0x397>
 39d:	04 a3                   	b.mov      r5,r3
 39f:	04 c4                   	b.mov      r6,r4
 3a1:	30 ea 3d                	b.addi     r7,r10,0xffffffbc
 3a4:	50 67 00                	b.mlwz     r3,0x0(r7),0x0
 3a7:	0e d2                   	b.j        4d4 <___ieee754_log+0x4d4>
 3a9:	30 4a 33                	b.addi     r2,r10,0xffffffcc
 3ac:	50 62 00                	b.mlwz     r3,0x0(r2),0x0
 3af:	98 a0 42 74 67 fc       	b.ori      r5,r0,0x3fe62e42
 3b5:	98 c0 00 00 07 7f       	b.ori      r6,r0,0xfee00000
 3bb:	a4 00 00 00 00 00       	b.jal      3bb <___ieee754_log+0x3bb>
 3c1:	05 a3                   	b.mov      r13,r3
 3c3:	05 c4                   	b.mov      r14,r4
 3c5:	30 aa 2d                	b.addi     r5,r10,0xffffffb4
 3c8:	50 65 00                	b.mlwz     r3,0x0(r5),0x0
 3cb:	04 ab                   	b.mov      r5,r11
 3cd:	04 cc                   	b.mov      r6,r12
 3cf:	a4 00 00 00 00 00       	b.jal      3cf <___ieee754_log+0x3cf>
 3d5:	04 a3                   	b.mov      r5,r3
 3d7:	04 c4                   	b.mov      r6,r4
 3d9:	30 ea 23                	b.addi     r7,r10,0xffffffc4
 3dc:	50 67 00                	b.mlwz     r3,0x0(r7),0x0
 3df:	a4 00 00 00 00 00       	b.jal      3df <___ieee754_log+0x3df>
 3e5:	05 63                   	b.mov      r11,r3
 3e7:	05 84                   	b.mov      r12,r4
 3e9:	30 4a 33                	b.addi     r2,r10,0xffffffcc
 3ec:	50 62 00                	b.mlwz     r3,0x0(r2),0x0
 3ef:	98 a0 f7 9c 57 bc       	b.ori      r5,r0,0x3dea39ef
 3f5:	98 c0 6e 3c 9e ac       	b.ori      r6,r0,0x35793c76
 3fb:	a4 00 00 00 00 00       	b.jal      3fb <___ieee754_log+0x3fb>
 401:	04 a3                   	b.mov      r5,r3
 403:	04 c4                   	b.mov      r6,r4
 405:	04 6b                   	b.mov      r3,r11
 407:	04 8c                   	b.mov      r4,r12
 409:	a4 00 00 00 00 00       	b.jal      409 <___ieee754_log+0x409>
 40f:	04 a3                   	b.mov      r5,r3
 411:	04 c4                   	b.mov      r6,r4
 413:	30 ea 2d                	b.addi     r7,r10,0xffffffb4
 416:	50 67 00                	b.mlwz     r3,0x0(r7),0x0
 419:	a4 00 00 00 00 00       	b.jal      419 <___ieee754_log+0x419>
 41f:	30 4a 3d                	b.addi     r2,r10,0xffffffbc
 422:	50 a2 00                	b.mlwz     r5,0x0(r2),0x0
 425:	0e 14                   	b.j        4c6 <___ieee754_log+0x4c6>
 427:	cc aa 7b ff             	b.lwz      r5,0xffffffdc(r10)
 42b:	41 05 f4                	b.bnei     r5,0x0,45a <___ieee754_log+0x45a>
 42e:	30 ca 3d                	b.addi     r6,r10,0xffffffbc
 431:	50 66 00                	b.mlwz     r3,0x0(r6),0x0
 434:	04 ab                   	b.mov      r5,r11
 436:	04 cc                   	b.mov      r6,r12
 438:	a4 00 00 00 00 00       	b.jal      438 <___ieee754_log+0x438>
 43e:	04 a3                   	b.mov      r5,r3
 440:	04 c4                   	b.mov      r6,r4
 442:	30 ea 23                	b.addi     r7,r10,0xffffffc4
 445:	50 67 00                	b.mlwz     r3,0x0(r7),0x0
 448:	a4 00 00 00 00 00       	b.jal      448 <___ieee754_log+0x448>
 44e:	04 a3                   	b.mov      r5,r3
 450:	04 c4                   	b.mov      r6,r4
 452:	30 4a 3d                	b.addi     r2,r10,0xffffffbc
 455:	50 62 00                	b.mlwz     r3,0x0(r2),0x0
 458:	0c f8                   	b.j        4d4 <___ieee754_log+0x4d4>
 45a:	30 aa 33                	b.addi     r5,r10,0xffffffcc
 45d:	50 65 00                	b.mlwz     r3,0x0(r5),0x0
 460:	98 a0 42 74 67 fc       	b.ori      r5,r0,0x3fe62e42
 466:	98 c0 00 00 07 7f       	b.ori      r6,r0,0xfee00000
 46c:	a4 00 00 00 00 00       	b.jal      46c <___ieee754_log+0x46c>
 472:	05 a3                   	b.mov      r13,r3
 474:	05 c4                   	b.mov      r14,r4
 476:	30 ca 3d                	b.addi     r6,r10,0xffffffbc
 479:	50 66 00                	b.mlwz     r3,0x0(r6),0x0
 47c:	04 ab                   	b.mov      r5,r11
 47e:	04 cc                   	b.mov      r6,r12
 480:	a4 00 00 00 00 00       	b.jal      480 <___ieee754_log+0x480>
 486:	04 a3                   	b.mov      r5,r3
 488:	04 c4                   	b.mov      r6,r4
 48a:	30 ea 23                	b.addi     r7,r10,0xffffffc4
 48d:	50 67 00                	b.mlwz     r3,0x0(r7),0x0
 490:	a4 00 00 00 00 00       	b.jal      490 <___ieee754_log+0x490>
 496:	05 63                   	b.mov      r11,r3
 498:	05 84                   	b.mov      r12,r4
 49a:	30 4a 33                	b.addi     r2,r10,0xffffffcc
 49d:	50 62 00                	b.mlwz     r3,0x0(r2),0x0
 4a0:	98 a0 f7 9c 57 bd       	b.ori      r5,r0,0xbdea39ef
 4a6:	98 c0 6e 3c 9e ac       	b.ori      r6,r0,0x35793c76
 4ac:	a4 00 00 00 00 00       	b.jal      4ac <___ieee754_log+0x4ac>
 4b2:	04 a3                   	b.mov      r5,r3
 4b4:	04 c4                   	b.mov      r6,r4
 4b6:	04 6b                   	b.mov      r3,r11
 4b8:	04 8c                   	b.mov      r4,r12
 4ba:	a4 00 00 00 00 00       	b.jal      4ba <___ieee754_log+0x4ba>
 4c0:	30 ea 3d                	b.addi     r7,r10,0xffffffbc
 4c3:	50 a7 00                	b.mlwz     r5,0x0(r7),0x0
 4c6:	a4 00 00 00 00 00       	b.jal      4c6 <___ieee754_log+0x4c6>
 4cc:	04 a3                   	b.mov      r5,r3
 4ce:	04 c4                   	b.mov      r6,r4
 4d0:	04 6d                   	b.mov      r3,r13
 4d2:	04 8e                   	b.mov      r4,r14
 4d4:	a4 00 00 00 00 00       	b.jal      4d4 <___ieee754_log+0x4d4>
 4da:	47 be 30                	b.reti     0x7,0xc

e_log10.o:     file format elf32-ba

Disassembly of section .text:

00000000 <___ieee754_log10>:
   0:	47 ae 40                	b.entri    0x7,0x2
   3:	31 41 24                	b.addi     r10,r1,0x24
   6:	05 c3                   	b.mov      r14,r3
   8:	05 e4                   	b.mov      r15,r4
   a:	05 a3                   	b.mov      r13,r3
   c:	00 e0                   	b.movi     r7,0x0
   e:	98 a0 ff ff f0 00       	b.ori      r5,r0,0xfffff
  14:	d3 46 55 20             	b.bgts     r3,r5,5e <___ieee754_log10+0x5e>
  18:	94 e3 ff ff ff fe       	b.andi     r7,r3,0x7fffffff
  1e:	60 e7 21                	b.or       r7,r7,r4
  21:	41 07 b0                	b.bnei     r7,0x0,2e <___ieee754_log10+0x2e>
  24:	98 60 00 00 0a c3       	b.ori      r3,r0,0xc3500000
  2a:	00 80                   	b.movi     r4,0x0
  2c:	0f c0                   	b.j        3b <___ieee754_log10+0x3b>
  2e:	42 03 98                	b.bgesi    r3,0x0,47 <___ieee754_log10+0x47>
  31:	04 a3                   	b.mov      r5,r3
  33:	04 c4                   	b.mov      r6,r4
  35:	a4 00 00 00 00 00       	b.jal      35 <___ieee754_log10+0x35>
  3b:	00 a0                   	b.movi     r5,0x0
  3d:	00 c0                   	b.movi     r6,0x0
  3f:	a4 00 00 00 00 00       	b.jal      3f <___ieee754_log10+0x3f>
